
C:/intelFPGA_lite/18.0/ECE243_Labs/Project/main.axf:     file format elf32-littlearm


Disassembly of section .vectors:

00000000 <__cs3_interrupt_vector>:
   0:	18 f0 9f e5 18 f0 9f e5 18 f0 9f e5 18 f0 9f e5     ................
  10:	18 f0 9f e5 18 f0 9f e5 18 f0 9f e5 18 f0 9f e5     ................
  20:	d0 21 00 00 d4 21 00 00 d8 21 00 00 dc 21 00 00     .!...!...!...!..
  30:	e0 21 00 00 44 7e 00 00 f4 29 00 00 e4 21 00 00     .!..D~...)...!..

Disassembly of section .text:

00000040 <__cs3_reset_generic>:
      40:	ea000026 	b	e0 <__cs3_start_asm_sim>

00000044 <__cs3_start_c>:
      44:	e59f608c 	ldr	r6, [pc, #140]	; d8 <__cs3_start_c+0x94>
      48:	e3560000 	cmp	r6, #0
      4c:	e92d4080 	push	{r7, lr}
      50:	e2466001 	sub	r6, r6, #1
      54:	0a00001e 	beq	d4 <__cs3_start_c+0x90>
      58:	e59f507c 	ldr	r5, [pc, #124]	; dc <__cs3_start_c+0x98>
      5c:	e3a00000 	mov	r0, #0
      60:	e3a01000 	mov	r1, #0
      64:	e515200c 	ldr	r2, [r5, #-12]
      68:	e515e010 	ldr	lr, [r5, #-16]
      6c:	e5154008 	ldr	r4, [r5, #-8]
      70:	e15e0002 	cmp	lr, r2
      74:	00822004 	addeq	r2, r2, r4
      78:	0a000009 	beq	a4 <__cs3_start_c+0x60>
      7c:	e3540000 	cmp	r4, #0
      80:	0a000007 	beq	a4 <__cs3_start_c+0x60>
      84:	e1a07002 	mov	r7, r2
      88:	e1a0c002 	mov	r12, r2
      8c:	e8be000c 	ldm	lr!, {r2, r3}
      90:	e8ac000c 	stmia	r12!, {r2, r3}
      94:	e067300c 	rsb	r3, r7, r12
      98:	e1540003 	cmp	r4, r3
      9c:	e1a0200c 	mov	r2, r12
      a0:	1afffff9 	bne	8c <__cs3_start_c+0x48>
      a4:	e515e004 	ldr	lr, [r5, #-4]
      a8:	e35e0000 	cmp	lr, #0
      ac:	11a03002 	movne	r3, r2
      b0:	0a000003 	beq	c4 <__cs3_start_c+0x80>
      b4:	e8a30003 	stmia	r3!, {r0, r1}
      b8:	e062c003 	rsb	r12, r2, r3
      bc:	e15e000c 	cmp	lr, r12
      c0:	1afffffb 	bne	b4 <__cs3_start_c+0x70>
      c4:	e2466001 	sub	r6, r6, #1
      c8:	e3760001 	cmn	r6, #1
      cc:	e2855014 	add	r5, r5, #20
      d0:	1affffe3 	bne	64 <__cs3_start_c+0x20>
      d4:	eb001f12 	bl	7d24 <__cs3_premain>
      d8:	00000001 	.word	0x00000001
      dc:	00008278 	.word	0x00008278

000000e0 <__cs3_start_asm_sim>:
      e0:	e28f103c 	add	r1, pc, #60	; 0x3c
      e4:	e3a00016 	mov	r0, #22
      e8:	ef123456 	svc	0x00123456
      ec:	e3500000 	cmp	r0, #0
      f0:	ba000008 	blt	118 <__cs3_start_asm_sim+0x38>
      f4:	e59f2028 	ldr	r2, [pc, #40]	; 124 <__cs3_heap_start_ptr>
      f8:	e59fd01c 	ldr	sp, [pc, #28]	; 11c <__cs3_start_asm_sim+0x3c>
      fc:	e5920008 	ldr	r0, [r2, #8]
     100:	e3500000 	cmp	r0, #0
     104:	11a0d000 	movne	sp, r0
     108:	e59f1010 	ldr	r1, [pc, #16]	; 120 <__cs3_start_asm_sim+0x40>
     10c:	e5920004 	ldr	r0, [r2, #4]
     110:	e3500000 	cmp	r0, #0
     114:	15810000 	strne	r0, [r1]
     118:	eaffffc9 	b	44 <__cs3_start_c>
     11c:	3ffffff8 	.word	0x3ffffff8
     120:	00053af8 	.word	0x00053af8

00000124 <__cs3_heap_start_ptr>:
     124:	00053ec0 	.word	0x00053ec0

00000128 <_start>:
     128:	e51fd000 	ldr	sp, [pc, #-0]	; 130 <_start+0x8>
     12c:	eaffffc4 	b	44 <__cs3_start_c>
     130:	3ffffff8 	.word	0x3ffffff8

00000134 <deregister_tm_clones>:
     134:	e92d4008 	push	{r3, lr}
     138:	e59f002c 	ldr	r0, [pc, #44]	; 16c <deregister_tm_clones+0x38>
     13c:	e59f302c 	ldr	r3, [pc, #44]	; 170 <deregister_tm_clones+0x3c>
     140:	e0603003 	rsb	r3, r0, r3
     144:	e3530006 	cmp	r3, #6
     148:	8a000001 	bhi	154 <deregister_tm_clones+0x20>
     14c:	e8bd4008 	pop	{r3, lr}
     150:	e12fff1e 	bx	lr
     154:	e59f3018 	ldr	r3, [pc, #24]	; 174 <deregister_tm_clones+0x40>
     158:	e3530000 	cmp	r3, #0
     15c:	0afffffa 	beq	14c <deregister_tm_clones+0x18>
     160:	e1a0e00f 	mov	lr, pc
     164:	e12fff13 	bx	r3
     168:	eafffff7 	b	14c <deregister_tm_clones+0x18>
     16c:	00053b00 	.word	0x00053b00
     170:	00053b03 	.word	0x00053b03
     174:	00000000 	.word	0x00000000

00000178 <register_tm_clones>:
     178:	e92d4008 	push	{r3, lr}
     17c:	e59f0034 	ldr	r0, [pc, #52]	; 1b8 <register_tm_clones+0x40>
     180:	e59f3034 	ldr	r3, [pc, #52]	; 1bc <register_tm_clones+0x44>
     184:	e0603003 	rsb	r3, r0, r3
     188:	e1a03143 	asr	r3, r3, #2
     18c:	e0833fa3 	add	r3, r3, r3, lsr #31
     190:	e1b010c3 	asrs	r1, r3, #1
     194:	1a000001 	bne	1a0 <register_tm_clones+0x28>
     198:	e8bd4008 	pop	{r3, lr}
     19c:	e12fff1e 	bx	lr
     1a0:	e59f2018 	ldr	r2, [pc, #24]	; 1c0 <register_tm_clones+0x48>
     1a4:	e3520000 	cmp	r2, #0
     1a8:	0afffffa 	beq	198 <register_tm_clones+0x20>
     1ac:	e1a0e00f 	mov	lr, pc
     1b0:	e12fff12 	bx	r2
     1b4:	eafffff7 	b	198 <register_tm_clones+0x20>
     1b8:	00053b00 	.word	0x00053b00
     1bc:	00053b00 	.word	0x00053b00
     1c0:	00000000 	.word	0x00000000

000001c4 <__do_global_dtors_aux>:
     1c4:	e92d4010 	push	{r4, lr}
     1c8:	e59f402c 	ldr	r4, [pc, #44]	; 1fc <__do_global_dtors_aux+0x38>
     1cc:	e5d43000 	ldrb	r3, [r4]
     1d0:	e3530000 	cmp	r3, #0
     1d4:	1a000006 	bne	1f4 <__do_global_dtors_aux+0x30>
     1d8:	ebffffd5 	bl	134 <deregister_tm_clones>
     1dc:	e59f301c 	ldr	r3, [pc, #28]	; 200 <__do_global_dtors_aux+0x3c>
     1e0:	e3530000 	cmp	r3, #0
     1e4:	159f0018 	ldrne	r0, [pc, #24]	; 204 <__do_global_dtors_aux+0x40>
     1e8:	1320f000 	nopne	{0}
     1ec:	e3a03001 	mov	r3, #1
     1f0:	e5c43000 	strb	r3, [r4]
     1f4:	e8bd4010 	pop	{r4, lr}
     1f8:	e12fff1e 	bx	lr
     1fc:	00053b00 	.word	0x00053b00
     200:	00000000 	.word	0x00000000
     204:	00007ed0 	.word	0x00007ed0

00000208 <frame_dummy>:
     208:	e92d4008 	push	{r3, lr}
     20c:	e59f3034 	ldr	r3, [pc, #52]	; 248 <frame_dummy+0x40>
     210:	e3530000 	cmp	r3, #0
     214:	159f0030 	ldrne	r0, [pc, #48]	; 24c <frame_dummy+0x44>
     218:	159f1030 	ldrne	r1, [pc, #48]	; 250 <frame_dummy+0x48>
     21c:	1320f000 	nopne	{0}
     220:	e59f002c 	ldr	r0, [pc, #44]	; 254 <frame_dummy+0x4c>
     224:	e5903000 	ldr	r3, [r0]
     228:	e3530000 	cmp	r3, #0
     22c:	0a000003 	beq	240 <frame_dummy+0x38>
     230:	e59f3020 	ldr	r3, [pc, #32]	; 258 <frame_dummy+0x50>
     234:	e3530000 	cmp	r3, #0
     238:	11a0e00f 	movne	lr, pc
     23c:	112fff13 	bxne	r3
     240:	e8bd4008 	pop	{r3, lr}
     244:	eaffffcb 	b	178 <register_tm_clones>
     248:	00000000 	.word	0x00000000
     24c:	00007ed0 	.word	0x00007ed0
     250:	00053b04 	.word	0x00053b04
     254:	00008278 	.word	0x00008278
     258:	00000000 	.word	0x00000000

0000025c <onStartup>:

void ulong_to_str(char buffer[], unsigned int num, int digits);
void update();
void update_screen();

void onStartup() {
     25c:	e92d4008 	push	{r3, lr}
    config_stack_pointers();        // Set up stack pointers for IRQ mode
     260:	eb0007e0 	bl	21e8 <config_stack_pointers>
    config_gic();                   // Config GIC to enable interrupts
     264:	eb000a2a 	bl	2b14 <config_gic>

    config_key_interrupt();         // Enable key interrupts
     268:	eb0007e8 	bl	2210 <config_key_interrupt>
    config_priv_timer_interrupt();  // Load priv timer to tick at 0.01s and set up interrupts
     26c:	eb0007ed 	bl	2228 <config_priv_timer_interrupt>
    config_ps2_interrupt();         // Enable PS/2 interrupt
     270:	eb0007f3 	bl	2244 <config_ps2_interrupt>

    config_arm_interrupt();         // Enable interrupts for the ARM processor
     274:	eb0007e2 	bl	2204 <config_arm_interrupt>

    init_vga();                     // Initialize VGA buffers
     278:	eb00059d 	bl	18f4 <init_vga>
    init_globals();                 // Initialize global variables
     27c:	eb00073f 	bl	1f80 <init_globals>

    turnOffAllLED();                // Turn Off All LEDs (Used for debugging
     280:	eb000445 	bl	139c <turnOffAllLED>
    turnOnLED(0);                   // LED 0 is the RUN signal
     284:	e3a00000 	mov	r0, #0
     288:	eb000426 	bl	1328 <turnOnLED>
     28c:	e8bd8008 	pop	{r3, pc}

00000290 <init_game>:
    gameLoop();                     // Enter game loop

    while (true);
}

void init_game() {
     290:	e92d4ff0 	push	{r4, r5, r6, r7, r8, r9, r10, r11, lr}
     294:	e24dd014 	sub	sp, sp, #20
     298:	e3a05027 	mov	r5, #39	; 0x27
     29c:	e3a07001 	mov	r7, #1
     2a0:	e3a04000 	mov	r4, #0
    int i;
    int space = (ORIGIN_Y) / SIZE;  // Space between hexagons

    // Init hexagons
    for (i = 0; i < SIZE; ++i) {
        Hexagon* hex = &HEXAGONS[i];
     2a4:	e3032c6c 	movw	r2, #15468	; 0x3c6c
     2a8:	e3402005 	movt	r2, #5
     2ac:	e58d2008 	str	r2, [sp, #8]
        if (i == 0)
            missing_segment = 0;

        int y = space * (i+1);
        int height = 4;
        int speed = SETTINGS.HEXAGON_SPEED;
     2b0:	e303bb20 	movw	r11, #15136	; 0x3b20
     2b4:	e340b005 	movt	r11, #5
        short int color = rand() % 0xFFFF;
     2b8:	e308a001 	movw	r10, #32769	; 0x8001
     2bc:	e348a000 	movt	r10, #32768	; 0x8000
    int space = (ORIGIN_Y) / SIZE;  // Space between hexagons

    // Init hexagons
    for (i = 0; i < SIZE; ++i) {
        Hexagon* hex = &HEXAGONS[i];
        int missing_segment = rand() % 6;
     2c0:	e30a9aab 	movw	r9, #43691	; 0xaaab
     2c4:	e3429aaa 	movt	r9, #10922	; 0x2aaa
     2c8:	e58d900c 	str	r9, [sp, #12]
     2cc:	ea000002 	b	2dc <init_game+0x4c>
     2d0:	e2844001 	add	r4, r4, #1
     2d4:	e2877001 	add	r7, r7, #1
     2d8:	e2855027 	add	r5, r5, #39	; 0x27
    int i;
    int space = (ORIGIN_Y) / SIZE;  // Space between hexagons

    // Init hexagons
    for (i = 0; i < SIZE; ++i) {
        Hexagon* hex = &HEXAGONS[i];
     2dc:	e3a030ac 	mov	r3, #172	; 0xac
     2e0:	e59d2008 	ldr	r2, [sp, #8]
     2e4:	e0282493 	mla	r8, r3, r4, r2
        int missing_segment = rand() % 6;
     2e8:	eb001a6b 	bl	6c9c <rand>
     2ec:	e1a06000 	mov	r6, r0

        // First hexagon missing segment should coincide
        // with player to give player time to get started
        if (i == 0)
     2f0:	e3540000 	cmp	r4, #0
     2f4:	0a000035 	beq	3d0 <__cs3_region_zero_size_ram+0x10>
            missing_segment = 0;

        int y = space * (i+1);
        int height = 4;
        int speed = SETTINGS.HEXAGON_SPEED;
     2f8:	e59b9010 	ldr	r9, [r11, #16]
        short int color = rand() % 0xFFFF;
     2fc:	eb001a66 	bl	6c9c <rand>
    int space = (ORIGIN_Y) / SIZE;  // Space between hexagons

    // Init hexagons
    for (i = 0; i < SIZE; ++i) {
        Hexagon* hex = &HEXAGONS[i];
        int missing_segment = rand() % 6;
     300:	e59d300c 	ldr	r3, [sp, #12]
     304:	e0c13693 	smull	r3, r1, r3, r6
     308:	e0411fc6 	sub	r1, r1, r6, asr #31
     30c:	e0811081 	add	r1, r1, r1, lsl #1
        int y = space * (i+1);
        int height = 4;
        int speed = SETTINGS.HEXAGON_SPEED;
        short int color = rand() % 0xFFFF;

        init_hexagon(hex, missing_segment, y, height, speed, color);
     310:	e58d9000 	str	r9, [sp]
            missing_segment = 0;

        int y = space * (i+1);
        int height = 4;
        int speed = SETTINGS.HEXAGON_SPEED;
        short int color = rand() % 0xFFFF;
     314:	e0c3209a 	smull	r2, r3, r10, r0
     318:	e0833000 	add	r3, r3, r0
     31c:	e1a02fc0 	asr	r2, r0, #31
     320:	e06237c3 	rsb	r3, r2, r3, asr #15
     324:	e0800003 	add	r0, r0, r3

        init_hexagon(hex, missing_segment, y, height, speed, color);
     328:	e6bf0070 	sxth	r0, r0
     32c:	e58d0004 	str	r0, [sp, #4]
     330:	e1a00008 	mov	r0, r8
     334:	e0461081 	sub	r1, r6, r1, lsl #1
     338:	e1a02005 	mov	r2, r5
     33c:	e3a03004 	mov	r3, #4
     340:	eb00057e 	bl	1940 <init_hexagon>
void init_game() {
    int i;
    int space = (ORIGIN_Y) / SIZE;  // Space between hexagons

    // Init hexagons
    for (i = 0; i < SIZE; ++i) {
     344:	e3570002 	cmp	r7, #2
     348:	daffffe0 	ble	2d0 <init_game+0x40>

        init_hexagon(hex, missing_segment, y, height, speed, color);
    }

    // Init game time
    GAME_STATE.GAME_TIME = 0;
     34c:	e3035b3c 	movw	r5, #15164	; 0x3b3c
     350:	e3405005 	movt	r5, #5
     354:	e3a04000 	mov	r4, #0
     358:	e5854004 	str	r4, [r5, #4]
    SCREEN_ROTATION_CHANGE_TIMER = 1000;
     35c:	e3033bd8 	movw	r3, #15320	; 0x3bd8
     360:	e3403005 	movt	r3, #5
     364:	e3a02ffa 	mov	r2, #1000	; 0x3e8
     368:	e5832000 	str	r2, [r3]

    // Init player
    PLAYER.section = 0;
     36c:	e3033e70 	movw	r3, #15984	; 0x3e70
     370:	e3403005 	movt	r3, #5
     374:	e5834000 	str	r4, [r3]
    PLAYER.height = 3;
     378:	e3a02003 	mov	r2, #3
     37c:	e5832004 	str	r2, [r3, #4]
    PLAYER.color = 0xFFFF;
     380:	e3e02000 	mvn	r2, #0
     384:	e1c320b8 	strh	r2, [r3, #8]
    PLAYER.rotation = 0;
     388:	e3a01000 	mov	r1, #0
     38c:	e583100c 	str	r1, [r3, #12]
    PLAYER.speed = SETTINGS.DEFAULT_PLAYER_SPEED;
     390:	e3032b20 	movw	r2, #15136	; 0x3b20
     394:	e3402005 	movt	r2, #5
     398:	e5920018 	ldr	r0, [r2, #24]
     39c:	e5830010 	str	r0, [r3, #16]
    PLAYER.move_left = false;
     3a0:	e5c34015 	strb	r4, [r3, #21]
    PLAYER.move_right = false;
     3a4:	e5c34014 	strb	r4, [r3, #20]

    // Reset screen rotation
    GAME_STATE.SCREEN_ROTATION_ANGLE = 0;
     3a8:	e5851008 	str	r1, [r5, #8]
    SETTINGS.SCREEN_ROTATION_DIRECTION = CLOCKWISE;
     3ac:	e5c24005 	strb	r4, [r2, #5]

    // Reset Game Over and RUN status
    GAME_STATE.GAME_OVER = false;
     3b0:	e5c54001 	strb	r4, [r5, #1]
    turnOffLED(9);
     3b4:	e3a00009 	mov	r0, #9
     3b8:	eb0003e1 	bl	1344 <turnOffLED>

    GAME_STATE.RUN = true;
     3bc:	e3a03001 	mov	r3, #1
     3c0:	e5c53000 	strb	r3, [r5]
    turnOnLED(0);
     3c4:	e1a00004 	mov	r0, r4
     3c8:	eb0003d6 	bl	1328 <turnOnLED>
     3cc:	ea00000f 	b	410 <__cs3_region_zero_size_ram+0x50>
        if (i == 0)
            missing_segment = 0;

        int y = space * (i+1);
        int height = 4;
        int speed = SETTINGS.HEXAGON_SPEED;
     3d0:	e59b6010 	ldr	r6, [r11, #16]
        short int color = rand() % 0xFFFF;
     3d4:	eb001a30 	bl	6c9c <rand>

        init_hexagon(hex, missing_segment, y, height, speed, color);
     3d8:	e58d6000 	str	r6, [sp]
            missing_segment = 0;

        int y = space * (i+1);
        int height = 4;
        int speed = SETTINGS.HEXAGON_SPEED;
        short int color = rand() % 0xFFFF;
     3dc:	e0c3209a 	smull	r2, r3, r10, r0
     3e0:	e0833000 	add	r3, r3, r0
     3e4:	e1a02fc0 	asr	r2, r0, #31
     3e8:	e06237c3 	rsb	r3, r2, r3, asr #15
     3ec:	e0800003 	add	r0, r0, r3

        init_hexagon(hex, missing_segment, y, height, speed, color);
     3f0:	e6bf0070 	sxth	r0, r0
     3f4:	e58d0004 	str	r0, [sp, #4]
     3f8:	e1a00008 	mov	r0, r8
     3fc:	e3a01000 	mov	r1, #0
     400:	e1a02005 	mov	r2, r5
     404:	e3a03004 	mov	r3, #4
     408:	eb00054c 	bl	1940 <init_hexagon>
     40c:	eaffffaf 	b	2d0 <init_game+0x40>
    GAME_STATE.GAME_OVER = false;
    turnOffLED(9);

    GAME_STATE.RUN = true;
    turnOnLED(0);
}
     410:	e28dd014 	add	sp, sp, #20
     414:	e8bd8ff0 	pop	{r4, r5, r6, r7, r8, r9, r10, r11, pc}

00000418 <drawSectionDividers>:
        pixel_buffer_start = *(pixel_ctrl_ptr + 1); // new back buffer
    }
}

// Draws the division lines between each section (For debug purposes)
void drawSectionDividers() {
     418:	e92d45f0 	push	{r4, r5, r6, r7, r8, r10, lr}
     41c:	e24dd01c 	sub	sp, sp, #28
    int i;
    for (i = 0; i < NUM_SECTIONS; ++i) {
     420:	e3a04000 	mov	r4, #0
        int y = ORIGIN_Y;
        int half_length = y / GRADIENT;
        int x0 = ORIGIN_X;
     424:	e3a0a09f 	mov	r10, #159	; 0x9f
        int x1 = x0 + half_length;
     428:	e3a080e3 	mov	r8, #227	; 0xe3
        int y0 = ORIGIN_Y;
     42c:	e3a07077 	mov	r7, #119	; 0x77
        int y1 = ORIGIN_Y - y;
     430:	e1a06004 	mov	r6, r4
        rotate(&x0, &y0, i);
        rotate(&x1, &y1, i);
        rotate2(&x0, &y0, GAME_STATE.SCREEN_ROTATION_ANGLE);
     434:	e3035b3c 	movw	r5, #15164	; 0x3b3c
     438:	e3405005 	movt	r5, #5
void drawSectionDividers() {
    int i;
    for (i = 0; i < NUM_SECTIONS; ++i) {
        int y = ORIGIN_Y;
        int half_length = y / GRADIENT;
        int x0 = ORIGIN_X;
     43c:	e58da008 	str	r10, [sp, #8]
        int x1 = x0 + half_length;
     440:	e58d800c 	str	r8, [sp, #12]
        int y0 = ORIGIN_Y;
     444:	e58d7010 	str	r7, [sp, #16]
        int y1 = ORIGIN_Y - y;
     448:	e58d6014 	str	r6, [sp, #20]
        rotate(&x0, &y0, i);
     44c:	e28d0008 	add	r0, sp, #8
     450:	e28d1010 	add	r1, sp, #16
     454:	e1a02004 	mov	r2, r4
     458:	eb00032d 	bl	1114 <rotate>
        rotate(&x1, &y1, i);
     45c:	e28d000c 	add	r0, sp, #12
     460:	e28d1014 	add	r1, sp, #20
     464:	e1a02004 	mov	r2, r4
     468:	eb000329 	bl	1114 <rotate>
        rotate2(&x0, &y0, GAME_STATE.SCREEN_ROTATION_ANGLE);
     46c:	e28d0008 	add	r0, sp, #8
     470:	e28d1010 	add	r1, sp, #16
     474:	e5952008 	ldr	r2, [r5, #8]
     478:	eb000362 	bl	1208 <rotate2>
        rotate2(&x1, &y1, GAME_STATE.SCREEN_ROTATION_ANGLE);
     47c:	e28d000c 	add	r0, sp, #12
     480:	e28d1014 	add	r1, sp, #20
     484:	e5952008 	ldr	r2, [r5, #8]
     488:	eb00035e 	bl	1208 <rotate2>
        draw_line(x0, y0, x1, y1, 0xFFFF);
     48c:	e3e03000 	mvn	r3, #0
     490:	e58d3000 	str	r3, [sp]
     494:	e59d0008 	ldr	r0, [sp, #8]
     498:	e59d1010 	ldr	r1, [sp, #16]
     49c:	e59d200c 	ldr	r2, [sp, #12]
     4a0:	e59d3014 	ldr	r3, [sp, #20]
     4a4:	eb0003d3 	bl	13f8 <draw_line>
}

// Draws the division lines between each section (For debug purposes)
void drawSectionDividers() {
    int i;
    for (i = 0; i < NUM_SECTIONS; ++i) {
     4a8:	e2844001 	add	r4, r4, #1
     4ac:	e3540006 	cmp	r4, #6
     4b0:	1affffe1 	bne	43c <drawSectionDividers+0x24>
        rotate(&x1, &y1, i);
        rotate2(&x0, &y0, GAME_STATE.SCREEN_ROTATION_ANGLE);
        rotate2(&x1, &y1, GAME_STATE.SCREEN_ROTATION_ANGLE);
        draw_line(x0, y0, x1, y1, 0xFFFF);
    }
}
     4b4:	e28dd01c 	add	sp, sp, #28
     4b8:	e8bd85f0 	pop	{r4, r5, r6, r7, r8, r10, pc}

000004bc <ulong_to_str>:

// Converts an unsigned long to a string and stores it in buffer
void ulong_to_str(char buffer[], unsigned int num, int digits) {
     4bc:	e92d00f0 	push	{r4, r5, r6, r7}
    char *s = buffer + digits;
     4c0:	e0800002 	add	r0, r0, r2
    if (SETTINGS.TIME_MODE == MILLISECONDS && digits > 2)
     4c4:	e3033b20 	movw	r3, #15136	; 0x3b20
     4c8:	e3403005 	movt	r3, #5
     4cc:	e5d33003 	ldrb	r3, [r3, #3]
     4d0:	e3530001 	cmp	r3, #1
     4d4:	1a000001 	bne	4e0 <ulong_to_str+0x24>
     4d8:	e3520002 	cmp	r2, #2
        s++;    // Space for decimal point
     4dc:	c2800001 	addgt	r0, r0, #1
    *(s--) = '\0';
     4e0:	e3a03000 	mov	r3, #0
     4e4:	e5c03000 	strb	r3, [r0]
    int count = 0;

    while (num > 0) {
     4e8:	e1510003 	cmp	r1, r3
     4ec:	0a000019 	beq	558 <ulong_to_str+0x9c>
        draw_line(x0, y0, x1, y1, 0xFFFF);
    }
}

// Converts an unsigned long to a string and stores it in buffer
void ulong_to_str(char buffer[], unsigned int num, int digits) {
     4f0:	e2402002 	sub	r2, r0, #2
    char *s = buffer + digits;
    if (SETTINGS.TIME_MODE == MILLISECONDS && digits > 2)
        s++;    // Space for decimal point
    *(s--) = '\0';
    int count = 0;
     4f4:	e1a00003 	mov	r0, r3

    while (num > 0) {
        if (SETTINGS.TIME_MODE == MILLISECONDS && count == 2) {
     4f8:	e3034b20 	movw	r4, #15136	; 0x3b20
     4fc:	e3404005 	movt	r4, #5
            // Add decimal point
            *(s--) = '.';
            count++;
            continue;
        }
        int n = num % 10;
     500:	e30c5ccd 	movw	r5, #52429	; 0xcccd
     504:	e34c5ccc 	movt	r5, #52428	; 0xcccc
    int count = 0;

    while (num > 0) {
        if (SETTINGS.TIME_MODE == MILLISECONDS && count == 2) {
            // Add decimal point
            *(s--) = '.';
     508:	e3a0702e 	mov	r7, #46	; 0x2e
            count++;
     50c:	e3a06003 	mov	r6, #3
        s++;    // Space for decimal point
    *(s--) = '\0';
    int count = 0;

    while (num > 0) {
        if (SETTINGS.TIME_MODE == MILLISECONDS && count == 2) {
     510:	e5d43003 	ldrb	r3, [r4, #3]
     514:	e3530001 	cmp	r3, #1
     518:	1a000003 	bne	52c <ulong_to_str+0x70>
     51c:	e3500002 	cmp	r0, #2
            // Add decimal point
            *(s--) = '.';
     520:	05c27001 	strbeq	r7, [r2, #1]
            count++;
     524:	01a00006 	moveq	r0, r6
        s++;    // Space for decimal point
    *(s--) = '\0';
    int count = 0;

    while (num > 0) {
        if (SETTINGS.TIME_MODE == MILLISECONDS && count == 2) {
     528:	0a000007 	beq	54c <ulong_to_str+0x90>
            // Add decimal point
            *(s--) = '.';
            count++;
            continue;
        }
        int n = num % 10;
     52c:	e083c195 	umull	r12, r3, r5, r1
     530:	e1a031a3 	lsr	r3, r3, #3
     534:	e083c103 	add	r12, r3, r3, lsl #2
     538:	e041108c 	sub	r1, r1, r12, lsl #1
        char c = n + '0';
     53c:	e2811030 	add	r1, r1, #48	; 0x30
        *(s--) = c;
     540:	e5c21001 	strb	r1, [r2, #1]
        num /= 10;
     544:	e1a01003 	mov	r1, r3
        count++;
     548:	e2800001 	add	r0, r0, #1
     54c:	e2422001 	sub	r2, r2, #1
    if (SETTINGS.TIME_MODE == MILLISECONDS && digits > 2)
        s++;    // Space for decimal point
    *(s--) = '\0';
    int count = 0;

    while (num > 0) {
     550:	e3510000 	cmp	r1, #0
     554:	1affffed 	bne	510 <ulong_to_str+0x54>
        char c = n + '0';
        *(s--) = c;
        num /= 10;
        count++;
    }
}
     558:	e8bd00f0 	pop	{r4, r5, r6, r7}
     55c:	e12fff1e 	bx	lr

00000560 <draw_background>:

void draw_background() {
     560:	e92d4030 	push	{r4, r5, lr}
     564:	e24dd00c 	sub	sp, sp, #12
    int i;
    for (i = 0; i < NUM_SECTIONS; ++i) {
     568:	e3a04000 	mov	r4, #0
        draw_segment(BACKGROUND[i]);
     56c:	e3035bdc 	movw	r5, #15324	; 0x3bdc
     570:	e3405005 	movt	r5, #5
     574:	e0843084 	add	r3, r4, r4, lsl #1
     578:	e0853183 	add	r3, r5, r3, lsl #3
     57c:	e2832010 	add	r2, r3, #16
     580:	e8920003 	ldm	r2, {r0, r1}
     584:	e88d0003 	stm	sp, {r0, r1}
     588:	e893000f 	ldm	r3, {r0, r1, r2, r3}
     58c:	eb00023c 	bl	e84 <draw_segment>
    }
}

void draw_background() {
    int i;
    for (i = 0; i < NUM_SECTIONS; ++i) {
     590:	e2844001 	add	r4, r4, #1
     594:	e3540006 	cmp	r4, #6
     598:	1afffff5 	bne	574 <draw_background+0x14>
        draw_segment(BACKGROUND[i]);
    }
}
     59c:	e28dd00c 	add	sp, sp, #12
     5a0:	e8bd8030 	pop	{r4, r5, pc}

000005a4 <draw_time>:

void draw_time() {
     5a4:	e92d4030 	push	{r4, r5, lr}
     5a8:	e24dd014 	sub	sp, sp, #20
    clear_char_buffer();        // Clear previous draw
     5ac:	eb0003e7 	bl	1550 <clear_char_buffer>

    // Get time in ms or s based on setting
    unsigned int time = GAME_STATE.GAME_TIME;
     5b0:	e3033b3c 	movw	r3, #15164	; 0x3b3c
     5b4:	e3403005 	movt	r3, #5
     5b8:	e5934004 	ldr	r4, [r3, #4]
    if (SETTINGS.TIME_MODE == SECONDS)
     5bc:	e3033b20 	movw	r3, #15136	; 0x3b20
     5c0:	e3403005 	movt	r3, #5
     5c4:	e5d33003 	ldrb	r3, [r3, #3]
     5c8:	e3530000 	cmp	r3, #0
     5cc:	1a000059 	bne	738 <draw_time+0x194>
        time /= 100;
     5d0:	e308351f 	movw	r3, #34079	; 0x851f
     5d4:	e34531eb 	movt	r3, #20971	; 0x51eb
     5d8:	e0842493 	umull	r2, r4, r3, r4

    char text[10];

    char *s = text;
    if (time == 0) {
     5dc:	e1b042a4 	lsrs	r4, r4, #5
     5e0:	1a000011 	bne	62c <draw_time+0x88>
        if (SETTINGS.TIME_MODE == SECONDS) {
            *(s++) = '0';
     5e4:	e3a03030 	mov	r3, #48	; 0x30
     5e8:	e5cd3004 	strb	r3, [sp, #4]
            *(s++) = '0';
     5ec:	e5cd3005 	strb	r3, [sp, #5]
            *s = '\0';
     5f0:	e3a03000 	mov	r3, #0
     5f4:	e5cd3006 	strb	r3, [sp, #6]
     5f8:	ea000047 	b	71c <draw_time+0x178>
        } else if (SETTINGS.TIME_MODE == MILLISECONDS) {
     5fc:	e3530001 	cmp	r3, #1
     600:	1a000045 	bne	71c <draw_time+0x178>
            *(s++) = '0';
     604:	e3a03030 	mov	r3, #48	; 0x30
     608:	e5cd3004 	strb	r3, [sp, #4]
            *(s++) = '0';
     60c:	e5cd3005 	strb	r3, [sp, #5]
            *(s++) = '.';
     610:	e3a0202e 	mov	r2, #46	; 0x2e
     614:	e5cd2006 	strb	r2, [sp, #6]
            *(s++) = '0';
     618:	e5cd3007 	strb	r3, [sp, #7]
            *(s++) = '0';
     61c:	e5cd3008 	strb	r3, [sp, #8]
            *s = '\0';
     620:	e3a03000 	mov	r3, #0
     624:	e5cd3009 	strb	r3, [sp, #9]
     628:	ea00003b 	b	71c <draw_time+0x178>
        }
    } else {
        int n = 1 + log10(time);    // Number of digits
     62c:	e1a00004 	mov	r0, r4
     630:	eb00153a 	bl	5b20 <__aeabi_ui2d>
     634:	eb000b18 	bl	329c <log10>
     638:	e3a02000 	mov	r2, #0
     63c:	e3a03000 	mov	r3, #0
     640:	e3433ff0 	movt	r3, #16368	; 0x3ff0
     644:	eb001471 	bl	5810 <__adddf3>
     648:	eb0016ec 	bl	6200 <__aeabi_d2iz>
     64c:	e1a05000 	mov	r5, r0
        ulong_to_str(text, time, n);    // Convert time to string
     650:	e28d0004 	add	r0, sp, #4
     654:	e1a01004 	mov	r1, r4
     658:	e1a02005 	mov	r2, r5
     65c:	ebffff96 	bl	4bc <ulong_to_str>

        // Handle some edge cases for the string
        if (SETTINGS.TIME_MODE == SECONDS) {
     660:	e3033b20 	movw	r3, #15136	; 0x3b20
     664:	e3403005 	movt	r3, #5
     668:	e5d33003 	ldrb	r3, [r3, #3]
     66c:	e3530000 	cmp	r3, #0
     670:	1a000007 	bne	694 <draw_time+0xf0>
            if (n < 2) {
     674:	e3550001 	cmp	r5, #1
     678:	ca000027 	bgt	71c <draw_time+0x178>
                // Number is one digit
                // Add '0' at the beginning to make number two digits
                *(s + 2) = '\0';
     67c:	e5cd3006 	strb	r3, [sp, #6]
                *(s + 1) = *s;
     680:	e5dd3004 	ldrb	r3, [sp, #4]
     684:	e5cd3005 	strb	r3, [sp, #5]
                *s = '0';
     688:	e3a03030 	mov	r3, #48	; 0x30
     68c:	e5cd3004 	strb	r3, [sp, #4]
     690:	ea000021 	b	71c <draw_time+0x178>
            }
        } else if (SETTINGS.TIME_MODE == MILLISECONDS) {
     694:	e3530001 	cmp	r3, #1
     698:	1a00001f 	bne	71c <draw_time+0x178>
            if (n == 3) {
     69c:	e3550003 	cmp	r5, #3
     6a0:	1a00000c 	bne	6d8 <draw_time+0x134>
                // Seconds is one digit
                // Add '0' at the beginning to make seconds two digits
                *(s + 5) = '\0';
     6a4:	e3a03000 	mov	r3, #0
     6a8:	e5cd3009 	strb	r3, [sp, #9]
                int i;
                for (i = 4; i > 0; --i)
                    *(s + i) = *(s + i - 1);
     6ac:	e5dd3007 	ldrb	r3, [sp, #7]
     6b0:	e5cd3008 	strb	r3, [sp, #8]
     6b4:	e5dd3006 	ldrb	r3, [sp, #6]
     6b8:	e5cd3007 	strb	r3, [sp, #7]
     6bc:	e5dd3005 	ldrb	r3, [sp, #5]
     6c0:	e5cd3006 	strb	r3, [sp, #6]
     6c4:	e5dd3004 	ldrb	r3, [sp, #4]
     6c8:	e5cd3005 	strb	r3, [sp, #5]
                *s = '0';
     6cc:	e3a03030 	mov	r3, #48	; 0x30
     6d0:	e5cd3004 	strb	r3, [sp, #4]
     6d4:	ea000010 	b	71c <draw_time+0x178>
            } else if (n <= 2) {
     6d8:	e3550002 	cmp	r5, #2
     6dc:	ca00000e 	bgt	71c <draw_time+0x178>
                // Number is less than a second
                // Add a '00.' before number to look cleaner
                *(s + 5) = '\0';
     6e0:	e3a03000 	mov	r3, #0
     6e4:	e5cd3009 	strb	r3, [sp, #9]
                *(s + 4) = (n <= 1) ? *s : *(s + 1);
     6e8:	e3550001 	cmp	r5, #1
     6ec:	d5dd3004 	ldrble	r3, [sp, #4]
     6f0:	d5cd3008 	strble	r3, [sp, #8]
                *(s + 3) = (n <= 1) ? '0' : *s;
     6f4:	d3a03030 	movle	r3, #48	; 0x30
                *s = '0';
            } else if (n <= 2) {
                // Number is less than a second
                // Add a '00.' before number to look cleaner
                *(s + 5) = '\0';
                *(s + 4) = (n <= 1) ? *s : *(s + 1);
     6f8:	c5dd3005 	ldrbgt	r3, [sp, #5]
     6fc:	c5cd3008 	strbgt	r3, [sp, #8]
                *(s + 3) = (n <= 1) ? '0' : *s;
     700:	c5dd3004 	ldrbgt	r3, [sp, #4]
     704:	e5cd3007 	strb	r3, [sp, #7]
                *(s + 2) = '.';
     708:	e3a0302e 	mov	r3, #46	; 0x2e
     70c:	e5cd3006 	strb	r3, [sp, #6]
                *(s + 1) = '0';
     710:	e3a03030 	mov	r3, #48	; 0x30
     714:	e5cd3005 	strb	r3, [sp, #5]
                *s = '0';
     718:	e5cd3004 	strb	r3, [sp, #4]
            }
        }
    }

    // Draw the text at the top right corner
    int x = 79 - strlen(text);
     71c:	e28d0004 	add	r0, sp, #4
     720:	eb001974 	bl	6cf8 <strlen>
    int y = 1;

    plot_text(x, y, text);
     724:	e260004f 	rsb	r0, r0, #79	; 0x4f
     728:	e3a01001 	mov	r1, #1
     72c:	e28d2004 	add	r2, sp, #4
     730:	eb000396 	bl	1590 <plot_text>
     734:	ea000002 	b	744 <draw_time+0x1a0>
        time /= 100;

    char text[10];

    char *s = text;
    if (time == 0) {
     738:	e3540000 	cmp	r4, #0
     73c:	0affffae 	beq	5fc <draw_time+0x58>
     740:	eaffffb9 	b	62c <draw_time+0x88>
    // Draw the text at the top right corner
    int x = 79 - strlen(text);
    int y = 1;

    plot_text(x, y, text);
}
     744:	e28dd014 	add	sp, sp, #20
     748:	e8bd8030 	pop	{r4, r5, pc}

0000074c <update_screen>:
    update_settings();      // Update settings changes
    update_game_state();    // Update game state
    updatePlayer(&PLAYER);  // Update player position
}

void update_screen() {
     74c:	e92d4038 	push	{r3, r4, r5, lr}
    if (!SETTINGS.SCREEN_ROTATE)
     750:	e3033b20 	movw	r3, #15136	; 0x3b20
     754:	e3403005 	movt	r3, #5
     758:	e5d33004 	ldrb	r3, [r3, #4]
     75c:	e3530000 	cmp	r3, #0
     760:	08bd8038 	popeq	{r3, r4, r5, pc}
        return;

    // Rotate screen
    float dr = (SETTINGS.SCREEN_ROTATION_DIRECTION == CLOCKWISE ? 1 : -1) * SETTINGS.SCREEN_ROTATION_SPEED;
     764:	e3033b20 	movw	r3, #15136	; 0x3b20
     768:	e3403005 	movt	r3, #5
     76c:	e5d33005 	ldrb	r3, [r3, #5]
     770:	e3530000 	cmp	r3, #0
     774:	03a005fe 	moveq	r0, #1065353216	; 0x3f800000
     778:	13a00000 	movne	r0, #0
     77c:	134b0f80 	movtne	r0, #49024	; 0xbf80
    GAME_STATE.SCREEN_ROTATION_ANGLE += dr;
     780:	e3034b3c 	movw	r4, #15164	; 0x3b3c
     784:	e3404005 	movt	r4, #5
void update_screen() {
    if (!SETTINGS.SCREEN_ROTATE)
        return;

    // Rotate screen
    float dr = (SETTINGS.SCREEN_ROTATION_DIRECTION == CLOCKWISE ? 1 : -1) * SETTINGS.SCREEN_ROTATION_SPEED;
     788:	e3033b20 	movw	r3, #15136	; 0x3b20
     78c:	e3403005 	movt	r3, #5
     790:	e5931008 	ldr	r1, [r3, #8]
     794:	eb001783 	bl	65a8 <__aeabi_fmul>
    GAME_STATE.SCREEN_ROTATION_ANGLE += dr;
     798:	e5941008 	ldr	r1, [r4, #8]
     79c:	eb0016d9 	bl	6308 <__addsf3>
     7a0:	e1a05000 	mov	r5, r0

    // Clamp rotation between 0 to 360 degrees
    if (GAME_STATE.SCREEN_ROTATION_ANGLE >= 360)
     7a4:	e3a01000 	mov	r1, #0
     7a8:	e34413b4 	movt	r1, #17332	; 0x43b4
     7ac:	eb001874 	bl	6984 <__aeabi_fcmpge>
     7b0:	e3500000 	cmp	r0, #0
    if (!SETTINGS.SCREEN_ROTATE)
        return;

    // Rotate screen
    float dr = (SETTINGS.SCREEN_ROTATION_DIRECTION == CLOCKWISE ? 1 : -1) * SETTINGS.SCREEN_ROTATION_SPEED;
    GAME_STATE.SCREEN_ROTATION_ANGLE += dr;
     7b4:	01a03004 	moveq	r3, r4
     7b8:	05835008 	streq	r5, [r3, #8]

    // Clamp rotation between 0 to 360 degrees
    if (GAME_STATE.SCREEN_ROTATION_ANGLE >= 360)
     7bc:	0a000006 	beq	7dc <update_screen+0x90>
        GAME_STATE.SCREEN_ROTATION_ANGLE -= 360;
     7c0:	e3034b3c 	movw	r4, #15164	; 0x3b3c
     7c4:	e3404005 	movt	r4, #5
     7c8:	e1a00005 	mov	r0, r5
     7cc:	e3a01000 	mov	r1, #0
     7d0:	e34413b4 	movt	r1, #17332	; 0x43b4
     7d4:	eb0016ca 	bl	6304 <__aeabi_fsub>
     7d8:	e5840008 	str	r0, [r4, #8]
    if (GAME_STATE.SCREEN_ROTATION_ANGLE < 0)
     7dc:	e3033b3c 	movw	r3, #15164	; 0x3b3c
     7e0:	e3403005 	movt	r3, #5
     7e4:	e5934008 	ldr	r4, [r3, #8]
     7e8:	e1a00004 	mov	r0, r4
     7ec:	e3a01000 	mov	r1, #0
     7f0:	eb001857 	bl	6954 <__aeabi_fcmplt>
     7f4:	e3500000 	cmp	r0, #0
     7f8:	08bd8038 	popeq	{r3, r4, r5, pc}
        GAME_STATE.SCREEN_ROTATION_ANGLE += 360;
     7fc:	e3035b3c 	movw	r5, #15164	; 0x3b3c
     800:	e3405005 	movt	r5, #5
     804:	e1a00004 	mov	r0, r4
     808:	e3a01000 	mov	r1, #0
     80c:	e34413b4 	movt	r1, #17332	; 0x43b4
     810:	eb0016bc 	bl	6308 <__addsf3>
     814:	e5850008 	str	r0, [r5, #8]
     818:	e8bd8038 	pop	{r3, r4, r5, pc}

0000081c <update>:

    plot_text(x, y, text);
}

// Perform necessary updates every frame
void update() {
     81c:	e92d4008 	push	{r3, lr}
    update_screen();        // Update screen rotation
     820:	ebffffc9 	bl	74c <update_screen>
    update_settings();      // Update settings changes
     824:	eb000541 	bl	1d30 <update_settings>
    update_game_state();    // Update game state
     828:	eb00056c 	bl	1de0 <update_game_state>
    updatePlayer(&PLAYER);  // Update player position
     82c:	e3030e70 	movw	r0, #15984	; 0x3e70
     830:	e3400005 	movt	r0, #5
     834:	eb00090c 	bl	2c6c <updatePlayer>
     838:	e8bd8008 	pop	{r3, pc}

0000083c <draw_title>:
    if (GAME_STATE.SCREEN_ROTATION_ANGLE < 0)
        GAME_STATE.SCREEN_ROTATION_ANGLE += 360;
}

// Draw title screen
void draw_title() {
     83c:	e92d4ff0 	push	{r4, r5, r6, r7, r8, r9, r10, r11, lr}
     840:	e24dd00c 	sub	sp, sp, #12
    clear_screen();
     844:	eb00032d 	bl	1500 <clear_screen>
    clear_char_buffer();
     848:	eb000340 	bl	1550 <clear_char_buffer>
     84c:	e3a09000 	mov	r9, #0

    int x, y;
    for (y = 0; y < 240; ++y) {
     850:	e1a06009 	mov	r6, r9
    if (GAME_STATE.SCREEN_ROTATION_ANGLE < 0)
        GAME_STATE.SCREEN_ROTATION_ANGLE += 360;
}

// Draw title screen
void draw_title() {
     854:	e1a0b009 	mov	r11, r9
    int x, y;
    for (y = 0; y < 240; ++y) {
        for (x = 0; x < 320; ++x) {
            int index = 320 * y + x;
            // Get color based on whether screen is start or options
            short int color = (TITLE_INDEX == 0) ? TITLE_START[index] : TITLE_OPTIONS[index];
     858:	e3037bc8 	movw	r7, #15304	; 0x3bc8
     85c:	e3407005 	movt	r7, #5
    if (GAME_STATE.SCREEN_ROTATION_ANGLE < 0)
        GAME_STATE.SCREEN_ROTATION_ANGLE += 360;
}

// Draw title screen
void draw_title() {
     860:	e30832b4 	movw	r3, #33460	; 0x82b4
     864:	e3403000 	movt	r3, #0
     868:	e58d3000 	str	r3, [sp]
     86c:	e30d3ab4 	movw	r3, #55988	; 0xdab4
     870:	e3403002 	movt	r3, #2
     874:	e58d3004 	str	r3, [sp, #4]
     878:	ea00000f 	b	8bc <draw_title+0x80>
    int x, y;
    for (y = 0; y < 240; ++y) {
        for (x = 0; x < 320; ++x) {
            int index = 320 * y + x;
            // Get color based on whether screen is start or options
            short int color = (TITLE_INDEX == 0) ? TITLE_START[index] : TITLE_OPTIONS[index];
     87c:	e5973000 	ldr	r3, [r7]
     880:	e3530000 	cmp	r3, #0
     884:	019820b5 	ldrheq	r2, [r8, r5]
     888:	119a20b5 	ldrhne	r2, [r10, r5]
            plot_pixel(x, y, color);
     88c:	e1a00004 	mov	r0, r4
     890:	e1a01006 	mov	r1, r6
     894:	e6bf2072 	sxth	r2, r2
     898:	eb0002c8 	bl	13c0 <plot_pixel>
    clear_screen();
    clear_char_buffer();

    int x, y;
    for (y = 0; y < 240; ++y) {
        for (x = 0; x < 320; ++x) {
     89c:	e2844001 	add	r4, r4, #1
     8a0:	e2855002 	add	r5, r5, #2
     8a4:	e3540d05 	cmp	r4, #320	; 0x140
     8a8:	1afffff3 	bne	87c <draw_title+0x40>
void draw_title() {
    clear_screen();
    clear_char_buffer();

    int x, y;
    for (y = 0; y < 240; ++y) {
     8ac:	e2866001 	add	r6, r6, #1
     8b0:	e2899d0a 	add	r9, r9, #640	; 0x280
     8b4:	e35600f0 	cmp	r6, #240	; 0xf0
     8b8:	0a000006 	beq	8d8 <draw_title+0x9c>
    if (GAME_STATE.SCREEN_ROTATION_ANGLE < 0)
        GAME_STATE.SCREEN_ROTATION_ANGLE += 360;
}

// Draw title screen
void draw_title() {
     8bc:	e1a0500b 	mov	r5, r11
     8c0:	e1a0400b 	mov	r4, r11
     8c4:	e59d3000 	ldr	r3, [sp]
     8c8:	e089a003 	add	r10, r9, r3
     8cc:	e59d3004 	ldr	r3, [sp, #4]
     8d0:	e0898003 	add	r8, r9, r3
     8d4:	eaffffe8 	b	87c <draw_title+0x40>
            short int color = (TITLE_INDEX == 0) ? TITLE_START[index] : TITLE_OPTIONS[index];
            plot_pixel(x, y, color);
        }
    }

    register int index = TITLE_INDEX;
     8d8:	e3033bc8 	movw	r3, #15304	; 0x3bc8
     8dc:	e3403005 	movt	r3, #5
     8e0:	e5934000 	ldr	r4, [r3]
    wait_for_vsync();
     8e4:	eb0003f8 	bl	18cc <wait_for_vsync>
    pixel_buffer_start = *(pixel_ctrl_ptr + 1);
     8e8:	e3083280 	movw	r3, #33408	; 0x8280
     8ec:	e3403000 	movt	r3, #0
     8f0:	e5933000 	ldr	r3, [r3]
     8f4:	e5932004 	ldr	r2, [r3, #4]
     8f8:	e3033b1c 	movw	r3, #15132	; 0x3b1c
     8fc:	e3403005 	movt	r3, #5
     900:	e5832000 	str	r2, [r3]
    while (GAME_STATE.MODE == TITLE && TITLE_INDEX == index);
     904:	e3032b3c 	movw	r2, #15164	; 0x3b3c
     908:	e3402005 	movt	r2, #5
     90c:	e3033bc8 	movw	r3, #15304	; 0x3bc8
     910:	e3403005 	movt	r3, #5
     914:	e5d2100c 	ldrb	r1, [r2, #12]
     918:	e3510000 	cmp	r1, #0
     91c:	1a000002 	bne	92c <draw_title+0xf0>
     920:	e5931000 	ldr	r1, [r3]
     924:	e1510004 	cmp	r1, r4
     928:	0afffff9 	beq	914 <draw_title+0xd8>
}
     92c:	e28dd00c 	add	sp, sp, #12
     930:	e8bd8ff0 	pop	{r4, r5, r6, r7, r8, r9, r10, r11, pc}

00000934 <draw_options>:

// Loop in options screen
void draw_options() {
     934:	e92d45f0 	push	{r4, r5, r6, r7, r8, r10, lr}
     938:	e24dd054 	sub	sp, sp, #84	; 0x54
    // Draw background for options
    int x0 = 104, y0 = 120;
    int w = 116, h = 88;
    int x1 = x0 + w, y1 = y0 + h;
    int x, y;
    for (y = y0; y < y1; ++y) {
     93c:	e3a04078 	mov	r4, #120	; 0x78
        draw_line(x0, y, x1, y, 0x0);
     940:	e3a07000 	mov	r7, #0
     944:	e3a06068 	mov	r6, #104	; 0x68
     948:	e3a050dc 	mov	r5, #220	; 0xdc
     94c:	e58d7000 	str	r7, [sp]
     950:	e1a00006 	mov	r0, r6
     954:	e1a01004 	mov	r1, r4
     958:	e1a02005 	mov	r2, r5
     95c:	e1a03004 	mov	r3, r4
     960:	eb0002a4 	bl	13f8 <draw_line>
    // Draw background for options
    int x0 = 104, y0 = 120;
    int w = 116, h = 88;
    int x1 = x0 + w, y1 = y0 + h;
    int x, y;
    for (y = y0; y < y1; ++y) {
     964:	e2844001 	add	r4, r4, #1
     968:	e35400d0 	cmp	r4, #208	; 0xd0
     96c:	1afffff6 	bne	94c <draw_options+0x18>
        draw_line(x0, y, x1, y, 0x0);
    }

    wait_for_vsync();
     970:	eb0003d5 	bl	18cc <wait_for_vsync>
    pixel_buffer_start = *(pixel_ctrl_ptr + 1);
     974:	e3083280 	movw	r3, #33408	; 0x8280
     978:	e3403000 	movt	r3, #0
     97c:	e5933000 	ldr	r3, [r3]
     980:	e5932004 	ldr	r2, [r3, #4]
     984:	e3033b1c 	movw	r3, #15132	; 0x3b1c
     988:	e3403005 	movt	r3, #5
     98c:	e5832000 	str	r2, [r3]

    int x_left = 1 + x0 / 4, y_top = 1 + y0 / 4;
    int x_right = (x1 / 4), y_bottom = (y1 / 4);

    // Loop while game state is options
    while (GAME_STATE.MODE == OPTIONS) {
     990:	e3038b3c 	movw	r8, #15164	; 0x3b3c
     994:	e3408005 	movt	r8, #5
        if (!OPTIONS_UPDATE)
     998:	e3036bcc 	movw	r6, #15308	; 0x3bcc
     99c:	e3406005 	movt	r6, #5
        x = x_left, y = y_top;

        y++; // Empty Line

        // Input Type
        char * input_type_text = OPTIONS_INDEX == 0 ? ">Input Type\0" : "Input Type\0";
     9a0:	e3037bd4 	movw	r7, #15316	; 0x3bd4
     9a4:	e3407005 	movt	r7, #5
        plot_text(x, y, input_type_text);
        char *input_type = SETTINGS.DIFFICULTY == DEBUG ? "(SW[6])" : SETTINGS.INPUT_TYPE == KEYS ? "Keys\0" : "Keyboard\0";
     9a8:	e3035b20 	movw	r5, #15136	; 0x3b20
     9ac:	e3405005 	movt	r5, #5
        y += 2;

        y++; // Empty Line

        // Difficulty Set Options
        char text[] = "** Difficulty Set Options **\0";
     9b0:	e3074ed8 	movw	r4, #32472	; 0x7ed8
     9b4:	e3404000 	movt	r4, #0

    int x_left = 1 + x0 / 4, y_top = 1 + y0 / 4;
    int x_right = (x1 / 4), y_bottom = (y1 / 4);

    // Loop while game state is options
    while (GAME_STATE.MODE == OPTIONS) {
     9b8:	ea0000a3 	b	c4c <draw_options+0x318>
        if (!OPTIONS_UPDATE)
     9bc:	e5d63000 	ldrb	r3, [r6]
     9c0:	e3530000 	cmp	r3, #0
     9c4:	0a0000a0 	beq	c4c <draw_options+0x318>
            continue;   // No need to update anything
        OPTIONS_UPDATE = false;
     9c8:	e3a03000 	mov	r3, #0
     9cc:	e5c63000 	strb	r3, [r6]

        clear_char_buffer();    // Clear previous drawing
     9d0:	eb0002de 	bl	1550 <clear_char_buffer>
        x = x_left, y = y_top;

        y++; // Empty Line

        // Input Type
        char * input_type_text = OPTIONS_INDEX == 0 ? ">Input Type\0" : "Input Type\0";
     9d4:	e5973000 	ldr	r3, [r7]
     9d8:	e3530000 	cmp	r3, #0
     9dc:	01a02004 	moveq	r2, r4
     9e0:	12842010 	addne	r2, r4, #16
        plot_text(x, y, input_type_text);
     9e4:	e3a0001b 	mov	r0, #27
     9e8:	e3a01020 	mov	r1, #32
     9ec:	eb0002e7 	bl	1590 <plot_text>
        char *input_type = SETTINGS.DIFFICULTY == DEBUG ? "(SW[6])" : SETTINGS.INPUT_TYPE == KEYS ? "Keys\0" : "Keyboard\0";
     9f0:	e5d53002 	ldrb	r3, [r5, #2]
     9f4:	e3530000 	cmp	r3, #0
     9f8:	0308a020 	movweq	r10, #32800	; 0x8020
     9fc:	0340a000 	movteq	r10, #0
     a00:	0a000005 	beq	a1c <draw_options+0xe8>
     a04:	e5d53015 	ldrb	r3, [r5, #21]
     a08:	e3530000 	cmp	r3, #0
     a0c:	0284a028 	addeq	r10, r4, #40	; 0x28
     a10:	0a000001 	beq	a1c <draw_options+0xe8>
     a14:	eaffffff 	b	a18 <draw_options+0xe4>
     a18:	e284a01c 	add	r10, r4, #28
        x = x_right - strlen(input_type);
     a1c:	e1a0000a 	mov	r0, r10
     a20:	eb0018b4 	bl	6cf8 <strlen>
        plot_text(x, y, input_type);
     a24:	e2600037 	rsb	r0, r0, #55	; 0x37
     a28:	e3a01020 	mov	r1, #32
     a2c:	e1a0200a 	mov	r2, r10
     a30:	eb0002d6 	bl	1590 <plot_text>
        x = x_left;
        y += 2;

        // Control Type
        char * control_scheme_text = OPTIONS_INDEX == 1 ? ">Control Type\0" : "Control Type\0";
     a34:	e5973000 	ldr	r3, [r7]
     a38:	e3530001 	cmp	r3, #1
     a3c:	02842030 	addeq	r2, r4, #48	; 0x30
     a40:	12842040 	addne	r2, r4, #64	; 0x40
        plot_text(x, y, control_scheme_text);
     a44:	e3a0001b 	mov	r0, #27
     a48:	e3a01022 	mov	r1, #34	; 0x22
     a4c:	eb0002cf 	bl	1590 <plot_text>
        char *control_scheme = SETTINGS.DIFFICULTY == DEBUG ? "(SW[3])" : SETTINGS.CONTROL_SCHEME == DISCRETE ? "Discrete\0" : "Continuous\0";
     a50:	e5d53002 	ldrb	r3, [r5, #2]
     a54:	e3530000 	cmp	r3, #0
     a58:	0308a028 	movweq	r10, #32808	; 0x8028
     a5c:	0340a000 	movteq	r10, #0
     a60:	0a000005 	beq	a7c <draw_options+0x148>
     a64:	e5d53016 	ldrb	r3, [r5, #22]
     a68:	e3530000 	cmp	r3, #0
     a6c:	0284a05c 	addeq	r10, r4, #92	; 0x5c
     a70:	0a000001 	beq	a7c <draw_options+0x148>
     a74:	eaffffff 	b	a78 <draw_options+0x144>
     a78:	e284a050 	add	r10, r4, #80	; 0x50
        x = x_right - strlen(control_scheme);
     a7c:	e1a0000a 	mov	r0, r10
     a80:	eb00189c 	bl	6cf8 <strlen>
        plot_text(x, y, control_scheme);
     a84:	e2600037 	rsb	r0, r0, #55	; 0x37
     a88:	e3a01022 	mov	r1, #34	; 0x22
     a8c:	e1a0200a 	mov	r2, r10
     a90:	eb0002be 	bl	1590 <plot_text>
        x = x_left;
        y += 2;

        // Timer Type
        char * timer_type_text = OPTIONS_INDEX == 2 ? ">Timer Type\0" : "Timer Type\0";
     a94:	e5973000 	ldr	r3, [r7]
     a98:	e3530002 	cmp	r3, #2
     a9c:	02842068 	addeq	r2, r4, #104	; 0x68
     aa0:	12842078 	addne	r2, r4, #120	; 0x78
        plot_text(x, y, timer_type_text);
     aa4:	e3a0001b 	mov	r0, #27
     aa8:	e3a01024 	mov	r1, #36	; 0x24
     aac:	eb0002b7 	bl	1590 <plot_text>
        char *timer_type = SETTINGS.DIFFICULTY == DEBUG ? "(SW[4])" : SETTINGS.TIME_MODE == SECONDS ? "Seconds\0" : "Milliseconds\0";
     ab0:	e5d53002 	ldrb	r3, [r5, #2]
     ab4:	e3530000 	cmp	r3, #0
     ab8:	0308a030 	movweq	r10, #32816	; 0x8030
     abc:	0340a000 	movteq	r10, #0
     ac0:	0a000005 	beq	adc <draw_options+0x1a8>
     ac4:	e5d53003 	ldrb	r3, [r5, #3]
     ac8:	e3530000 	cmp	r3, #0
     acc:	0284a094 	addeq	r10, r4, #148	; 0x94
     ad0:	0a000001 	beq	adc <draw_options+0x1a8>
     ad4:	eaffffff 	b	ad8 <draw_options+0x1a4>
     ad8:	e284a084 	add	r10, r4, #132	; 0x84
        x = x_right - strlen(timer_type);
     adc:	e1a0000a 	mov	r0, r10
     ae0:	eb001884 	bl	6cf8 <strlen>
        plot_text(x, y, timer_type);
     ae4:	e2600037 	rsb	r0, r0, #55	; 0x37
     ae8:	e3a01024 	mov	r1, #36	; 0x24
     aec:	e1a0200a 	mov	r2, r10
     af0:	eb0002a6 	bl	1590 <plot_text>
        y += 2;

        y++; // Empty Line

        // Difficulty
        char * difficulty_option_text = OPTIONS_INDEX == 3 ? ">Difficulty\0" :  "Difficulty\0";
     af4:	e5973000 	ldr	r3, [r7]
     af8:	e3530003 	cmp	r3, #3
     afc:	028420a0 	addeq	r2, r4, #160	; 0xa0
     b00:	128420b0 	addne	r2, r4, #176	; 0xb0
        plot_text(x, y, difficulty_option_text);
     b04:	e3a0001b 	mov	r0, #27
     b08:	e3a01027 	mov	r1, #39	; 0x27
     b0c:	eb00029f 	bl	1590 <plot_text>
        char *difficulty_option = SETTINGS.DIFFICULTY == DEBUG ? "Debug\0" :
     b10:	e5d53002 	ldrb	r3, [r5, #2]
     b14:	e3530000 	cmp	r3, #0
     b18:	0284a0c4 	addeq	r10, r4, #196	; 0xc4
     b1c:	0a000005 	beq	b38 <draw_options+0x204>
                                  SETTINGS.DIFFICULTY == EASY ? "Easy\0" :
     b20:	e3530001 	cmp	r3, #1
     b24:	0284a0bc 	addeq	r10, r4, #188	; 0xbc
     b28:	0a000002 	beq	b38 <draw_options+0x204>
                                  SETTINGS.DIFFICULTY == NORMAL ? "Normal\0" :
     b2c:	e3530002 	cmp	r3, #2
     b30:	0284a0d4 	addeq	r10, r4, #212	; 0xd4
                                  "Hard\0";
     b34:	1284a0cc 	addne	r10, r4, #204	; 0xcc
        x = x_right - strlen(difficulty_option);
     b38:	e1a0000a 	mov	r0, r10
     b3c:	eb00186d 	bl	6cf8 <strlen>
        plot_text(x, y, difficulty_option);
     b40:	e2600037 	rsb	r0, r0, #55	; 0x37
     b44:	e3a01027 	mov	r1, #39	; 0x27
     b48:	e1a0200a 	mov	r2, r10
     b4c:	eb00028f 	bl	1590 <plot_text>
        y += 2;

        y++; // Empty Line

        // Difficulty Set Options
        char text[] = "** Difficulty Set Options **\0";
     b50:	e28dc030 	add	r12, sp, #48	; 0x30
     b54:	e284ec01 	add	lr, r4, #256	; 0x100
     b58:	e8be000f 	ldm	lr!, {r0, r1, r2, r3}
     b5c:	e8ac000f 	stmia	r12!, {r0, r1, r2, r3}
     b60:	e89e000f 	ldm	lr, {r0, r1, r2, r3}
     b64:	e8ac0007 	stmia	r12!, {r0, r1, r2}
     b68:	e1cc30b0 	strh	r3, [r12]
        x = x_left + (x_right - x_left - strlen(text)) / 2;
     b6c:	e28d0030 	add	r0, sp, #48	; 0x30
     b70:	eb001860 	bl	6cf8 <strlen>
     b74:	e260001c 	rsb	r0, r0, #28
     b78:	e1a000a0 	lsr	r0, r0, #1
        plot_text(x, y, text);
     b7c:	e280001b 	add	r0, r0, #27
     b80:	e3a0102a 	mov	r1, #42	; 0x2a
     b84:	e28d2030 	add	r2, sp, #48	; 0x30
     b88:	eb000280 	bl	1590 <plot_text>
        y += 2;

        y++; // Empty Line

        // Screen Rotation
        char screen_rotation_text[] = "Screen Rotation\0";
     b8c:	e28dc008 	add	r12, sp, #8
     b90:	e284ee12 	add	lr, r4, #288	; 0x120
     b94:	e8be000f 	ldm	lr!, {r0, r1, r2, r3}
     b98:	e8ac000f 	stmia	r12!, {r0, r1, r2, r3}
     b9c:	e59e3000 	ldr	r3, [lr]
     ba0:	e5cc3000 	strb	r3, [r12]
        plot_text(x, y, screen_rotation_text);
     ba4:	e3a0001b 	mov	r0, #27
     ba8:	e3a0102d 	mov	r1, #45	; 0x2d
     bac:	e28d2008 	add	r2, sp, #8
     bb0:	eb000276 	bl	1590 <plot_text>
        char *screen_rotation = SETTINGS.DIFFICULTY == DEBUG ? "(SW[1])\0" :
     bb4:	e5d53002 	ldrb	r3, [r5, #2]
     bb8:	e3530000 	cmp	r3, #0
     bbc:	0284a0e0 	addeq	r10, r4, #224	; 0xe0
     bc0:	0a000003 	beq	bd4 <draw_options+0x2a0>
                                SETTINGS.SCREEN_ROTATE ? "Yes\0" : "No\0";
     bc4:	e5d53004 	ldrb	r3, [r5, #4]
     bc8:	e3530000 	cmp	r3, #0
     bcc:	1284a0ec 	addne	r10, r4, #236	; 0xec
     bd0:	0284a0dc 	addeq	r10, r4, #220	; 0xdc

        x = x_right - strlen(screen_rotation);
     bd4:	e1a0000a 	mov	r0, r10
     bd8:	eb001846 	bl	6cf8 <strlen>
        plot_text(x, y, screen_rotation);
     bdc:	e2600037 	rsb	r0, r0, #55	; 0x37
     be0:	e3a0102d 	mov	r1, #45	; 0x2d
     be4:	e1a0200a 	mov	r2, r10
     be8:	eb000268 	bl	1590 <plot_text>
        x = x_left;
        y += 2;

        // Hexagon Rotation
        char hex_rotation_text[] = "Hexagon Rotation\0";
     bec:	e28dc01c 	add	r12, sp, #28
     bf0:	e284ef4d 	add	lr, r4, #308	; 0x134
     bf4:	e8be000f 	ldm	lr!, {r0, r1, r2, r3}
     bf8:	e8ac000f 	stmia	r12!, {r0, r1, r2, r3}
     bfc:	e59e3000 	ldr	r3, [lr]
     c00:	e1cc30b0 	strh	r3, [r12]
        plot_text(x, y, hex_rotation_text);
     c04:	e3a0001b 	mov	r0, #27
     c08:	e3a0102f 	mov	r1, #47	; 0x2f
     c0c:	e28d201c 	add	r2, sp, #28
     c10:	eb00025e 	bl	1590 <plot_text>
        char *hex_rotation = SETTINGS.DIFFICULTY == DEBUG ? "(SW[5])\0" :
     c14:	e5d53002 	ldrb	r3, [r5, #2]
     c18:	e3530000 	cmp	r3, #0
     c1c:	0284a0f4 	addeq	r10, r4, #244	; 0xf4
     c20:	0a000003 	beq	c34 <draw_options+0x300>
                             SETTINGS.HEXAGON_ROTATE ? "Yes\0" : "No\0";
     c24:	e5d5300c 	ldrb	r3, [r5, #12]
     c28:	e3530000 	cmp	r3, #0
     c2c:	1284a0ec 	addne	r10, r4, #236	; 0xec
     c30:	0284a0dc 	addeq	r10, r4, #220	; 0xdc

        x = x_right - strlen(hex_rotation);
     c34:	e1a0000a 	mov	r0, r10
     c38:	eb00182e 	bl	6cf8 <strlen>
        plot_text(x, y, hex_rotation);
     c3c:	e2600037 	rsb	r0, r0, #55	; 0x37
     c40:	e3a0102f 	mov	r1, #47	; 0x2f
     c44:	e1a0200a 	mov	r2, r10
     c48:	eb000250 	bl	1590 <plot_text>

    int x_left = 1 + x0 / 4, y_top = 1 + y0 / 4;
    int x_right = (x1 / 4), y_bottom = (y1 / 4);

    // Loop while game state is options
    while (GAME_STATE.MODE == OPTIONS) {
     c4c:	e5d8300c 	ldrb	r3, [r8, #12]
     c50:	e3530001 	cmp	r3, #1
     c54:	0affff58 	beq	9bc <draw_options+0x88>
        x = x_right - strlen(hex_rotation);
        plot_text(x, y, hex_rotation);
        x = x_left;
        y += 2;
    }
     c58:	e28dd054 	add	sp, sp, #84	; 0x54
     c5c:	e8bd85f0 	pop	{r4, r5, r6, r7, r8, r10, pc}

00000c60 <gameLoop>:

    GAME_STATE.RUN = true;
    turnOnLED(0);
}

void gameLoop() {
     c60:	e92d4ff0 	push	{r4, r5, r6, r7, r8, r9, r10, r11, lr}
     c64:	e24ddf59 	sub	sp, sp, #356	; 0x164
    //for (i = 0; i < NUM_SECTIONS; ++i) {
    //    init_segment(&BACKGROUND[i], i, ORIGIN_Y * 2, ORIGIN_Y * 2, 0, BACKGROUND_COLORS[i%2]);
    //}

    // Clear pixel and character buffers
    clear_screen();
     c68:	eb000224 	bl	1500 <clear_screen>
    clear_char_buffer();
     c6c:	eb000237 	bl	1550 <clear_char_buffer>

    // Init base hexagon
    Hexagon baseHex;
    init_hexagon(&baseHex, -1, ORIGIN_PADDING, ORIGIN_PADDING, 0, 0xFFFF);
     c70:	e3a03000 	mov	r3, #0
     c74:	e58d3000 	str	r3, [sp]
     c78:	e3e01000 	mvn	r1, #0
     c7c:	e58d1004 	str	r1, [sp, #4]
     c80:	e28d00b4 	add	r0, sp, #180	; 0xb4
     c84:	e3a0200a 	mov	r2, #10
     c88:	e1a03002 	mov	r3, r2
     c8c:	eb00032b 	bl	1940 <init_hexagon>


    while (true)
    {
        if (GAME_STATE.MODE == TITLE) {
     c90:	e3035b3c 	movw	r5, #15164	; 0x3b3c
     c94:	e3405005 	movt	r5, #5
            clear_char_buffer();
            continue;
        }

        // Initialize game if requested
        if (INIT_GAME_REQUEST) {
     c98:	e303bb4c 	movw	r11, #15180	; 0x3b4c
     c9c:	e340b005 	movt	r11, #5
        }

        clear_screen(); // Clear previous drawing

        draw_time();            // Draw game time (player score)
        draw_player(PLAYER);    // Draw the player
     ca0:	e3037e70 	movw	r7, #15984	; 0x3e70
     ca4:	e3407005 	movt	r7, #5
        if (hit)
            GAME_STATE.GAME_OVER = true;

        // Draw and update the hexagons
        for (i = 0; i < SIZE; ++i) {
            draw_hexagon(HEXAGONS[i]);
     ca8:	e3039c6c 	movw	r9, #15468	; 0x3c6c
     cac:	e3409005 	movt	r9, #5
        // Perform any necessary updates
        update();

        // Wait for VSync and swap buffers
        wait_for_vsync(); // swap front and back buffers on VGA vertical sync
        pixel_buffer_start = *(pixel_ctrl_ptr + 1); // new back buffer
     cb0:	e3082280 	movw	r2, #33408	; 0x8280
     cb4:	e3402000 	movt	r2, #0
     cb8:	e58d20a8 	str	r2, [sp, #168]	; 0xa8
     cbc:	e3033b1c 	movw	r3, #15132	; 0x3b1c
     cc0:	e3403005 	movt	r3, #5
     cc4:	e58d30ac 	str	r3, [sp, #172]	; 0xac
    init_hexagon(&baseHex, -1, ORIGIN_PADDING, ORIGIN_PADDING, 0, 0xFFFF);


    while (true)
    {
        if (GAME_STATE.MODE == TITLE) {
     cc8:	e5d5300c 	ldrb	r3, [r5, #12]
     ccc:	e3530000 	cmp	r3, #0
     cd0:	1a000001 	bne	cdc <gameLoop+0x7c>
            // In title screen
            draw_title();
     cd4:	ebfffed8 	bl	83c <draw_title>
            continue;
     cd8:	eafffffa 	b	cc8 <gameLoop+0x68>
        }

        if (GAME_STATE.MODE == OPTIONS) {
     cdc:	e5d5300c 	ldrb	r3, [r5, #12]
     ce0:	e3530001 	cmp	r3, #1
     ce4:	1a000006 	bne	d04 <gameLoop+0xa4>
            // Loop in options screen
            OPTIONS_UPDATE = true;
     ce8:	e3033bcc 	movw	r3, #15308	; 0x3bcc
     cec:	e3403005 	movt	r3, #5
     cf0:	e3a02001 	mov	r2, #1
     cf4:	e5c32000 	strb	r2, [r3]
            draw_options();
     cf8:	ebffff0d 	bl	934 <draw_options>
            clear_char_buffer();
     cfc:	eb000213 	bl	1550 <clear_char_buffer>
            continue;
     d00:	eafffff0 	b	cc8 <gameLoop+0x68>
        }

        // Initialize game if requested
        if (INIT_GAME_REQUEST) {
     d04:	e5db3000 	ldrb	r3, [r11]
     d08:	e3530000 	cmp	r3, #0
     d0c:	0a000002 	beq	d1c <gameLoop+0xbc>
            init_game();
     d10:	ebfffd5e 	bl	290 <init_game>
            INIT_GAME_REQUEST = false;  // Clear request
     d14:	e3a03000 	mov	r3, #0
     d18:	e5cb3000 	strb	r3, [r11]
        }

        // Do nothing if RUN is false
        if (!GAME_STATE.RUN)
     d1c:	e5d53000 	ldrb	r3, [r5]
     d20:	e3530000 	cmp	r3, #0
     d24:	0affffe7 	beq	cc8 <gameLoop+0x68>
            continue;

        // End game if GAME_OVER
        if (GAME_STATE.GAME_OVER) {
     d28:	e5d53001 	ldrb	r3, [r5, #1]
     d2c:	e3530000 	cmp	r3, #0
     d30:	0a000005 	beq	d4c <gameLoop+0xec>
            GAME_STATE.RUN = false;
     d34:	e3a00000 	mov	r0, #0
     d38:	e5c50000 	strb	r0, [r5]
            turnOffLED(0);
     d3c:	eb000180 	bl	1344 <turnOffLED>
            turnOnLED(9);   // LED to signal game over
     d40:	e3a00009 	mov	r0, #9
     d44:	eb000177 	bl	1328 <turnOnLED>
            continue;
     d48:	eaffffde 	b	cc8 <gameLoop+0x68>
        }

        clear_screen(); // Clear previous drawing
     d4c:	eb0001eb 	bl	1500 <clear_screen>

        draw_time();            // Draw game time (player score)
     d50:	ebfffe13 	bl	5a4 <draw_time>
        draw_player(PLAYER);    // Draw the player
     d54:	e2874010 	add	r4, r7, #16
     d58:	e8940003 	ldm	r4, {r0, r1}
     d5c:	e88d0003 	stm	sp, {r0, r1}
     d60:	e897000f 	ldm	r7, {r0, r1, r2, r3}
     d64:	eb000891 	bl	2fb0 <draw_player>

        // Check for player hit (game over condition)
        bool hit = checkPlayerHit(PLAYER);
     d68:	e8940003 	ldm	r4, {r0, r1}
     d6c:	e88d0003 	stm	sp, {r0, r1}
     d70:	e897000f 	ldm	r7, {r0, r1, r2, r3}
     d74:	eb000868 	bl	2f1c <checkPlayerHit>
        int sect = PLAYER.section;
     d78:	e5972000 	ldr	r2, [r7]
     d7c:	e58d20a4 	str	r2, [sp, #164]	; 0xa4
        if (hit)
     d80:	e3500000 	cmp	r0, #0
     d84:	e58d00a0 	str	r0, [sp, #160]	; 0xa0
            GAME_STATE.GAME_OVER = true;
     d88:	13a03001 	movne	r3, #1
     d8c:	15c53001 	strbne	r3, [r5, #1]
     d90:	ea000026 	b	e30 <gameLoop+0x1d0>

        // Draw and update the hexagons
        for (i = 0; i < SIZE; ++i) {
            draw_hexagon(HEXAGONS[i]);
     d94:	e024969a 	mla	r4, r10, r6, r9
     d98:	e1a0000d 	mov	r0, sp
     d9c:	e2841010 	add	r1, r4, #16
     da0:	e1a02008 	mov	r2, r8
     da4:	eb001732 	bl	6a74 <memcpy>
     da8:	e894000f 	ldm	r4, {r0, r1, r2, r3}
     dac:	eb0003c7 	bl	1cd0 <draw_hexagon>
            update_hexagon(&HEXAGONS[i]);
     db0:	e1a00004 	mov	r0, r4
     db4:	eb000387 	bl	1bd8 <update_hexagon>
        int sect = PLAYER.section;
        if (hit)
            GAME_STATE.GAME_OVER = true;

        // Draw and update the hexagons
        for (i = 0; i < SIZE; ++i) {
     db8:	e2866001 	add	r6, r6, #1
     dbc:	e3560003 	cmp	r6, #3
     dc0:	1afffff3 	bne	d94 <gameLoop+0x134>
            draw_hexagon(HEXAGONS[i]);
            update_hexagon(&HEXAGONS[i]);
        }

        // Draw the base hexagon
        draw_hexagon(baseHex);
     dc4:	e1a0000d 	mov	r0, sp
     dc8:	e28d10c4 	add	r1, sp, #196	; 0xc4
     dcc:	e3a0209c 	mov	r2, #156	; 0x9c
     dd0:	eb001727 	bl	6a74 <memcpy>
     dd4:	e28d30b4 	add	r3, sp, #180	; 0xb4
     dd8:	e893000f 	ldm	r3, {r0, r1, r2, r3}
     ddc:	eb0003bb 	bl	1cd0 <draw_hexagon>

        // Draw player in red when game over
        if (hit) {
     de0:	e59d30a0 	ldr	r3, [sp, #160]	; 0xa0
     de4:	e3530000 	cmp	r3, #0
     de8:	0a000008 	beq	e10 <gameLoop+0x1b0>
            PLAYER.section = sect;
     dec:	e59d20a4 	ldr	r2, [sp, #164]	; 0xa4
     df0:	e5872000 	str	r2, [r7]
            PLAYER.color = RED;
     df4:	e3a03b3e 	mov	r3, #63488	; 0xf800
     df8:	e1c730b8 	strh	r3, [r7, #8]
            draw_player(PLAYER);
     dfc:	e2873010 	add	r3, r7, #16
     e00:	e8930003 	ldm	r3, {r0, r1}
     e04:	e88d0003 	stm	sp, {r0, r1}
     e08:	e897000f 	ldm	r7, {r0, r1, r2, r3}
     e0c:	eb000867 	bl	2fb0 <draw_player>
        }

        // Perform any necessary updates
        update();
     e10:	ebfffe81 	bl	81c <update>

        // Wait for VSync and swap buffers
        wait_for_vsync(); // swap front and back buffers on VGA vertical sync
     e14:	eb0002ac 	bl	18cc <wait_for_vsync>
        pixel_buffer_start = *(pixel_ctrl_ptr + 1); // new back buffer
     e18:	e59d20a8 	ldr	r2, [sp, #168]	; 0xa8
     e1c:	e5923000 	ldr	r3, [r2]
     e20:	e5933004 	ldr	r3, [r3, #4]
     e24:	e59d20ac 	ldr	r2, [sp, #172]	; 0xac
     e28:	e5823000 	str	r3, [r2]
     e2c:	eaffffa5 	b	cc8 <gameLoop+0x68>

    GAME_STATE.RUN = true;
    turnOnLED(0);
}

void gameLoop() {
     e30:	e3a06000 	mov	r6, #0
        if (hit)
            GAME_STATE.GAME_OVER = true;

        // Draw and update the hexagons
        for (i = 0; i < SIZE; ++i) {
            draw_hexagon(HEXAGONS[i]);
     e34:	e3a0a0ac 	mov	r10, #172	; 0xac
     e38:	e3a0809c 	mov	r8, #156	; 0x9c
     e3c:	eaffffd4 	b	d94 <gameLoop+0x134>

00000e40 <main>:
    turnOffAllLED();                // Turn Off All LEDs (Used for debugging
    turnOnLED(0);                   // LED 0 is the RUN signal
}

int main(void)
{
     e40:	e52de004 	push	{lr}		; (str lr, [sp, #-4]!)
     e44:	e24dd00c 	sub	sp, sp, #12
    onStartup();                    // Actions to perform on startup
     e48:	ebfffd03 	bl	25c <onStartup>

    // Seed random number generator
    time_t t;
    srand((unsigned) time(&t));
     e4c:	e28d0004 	add	r0, sp, #4
     e50:	eb0017c0 	bl	6d58 <time>
     e54:	eb001789 	bl	6c80 <srand>

    gameLoop();                     // Enter game loop
     e58:	ebffff80 	bl	c60 <gameLoop>

00000e5c <init_segment>:
#include "vga.h"
#include "utils.h"
#include "globals.h"

void init_segment(Segment* seg, int section, int y, int height, int speed, short int color) {
    seg->section = section;
     e5c:	e5801008 	str	r1, [r0, #8]
    seg->y = y;
     e60:	e5802000 	str	r2, [r0]
    seg->height = height;
     e64:	e5803004 	str	r3, [r0, #4]
    seg->speed = speed;
     e68:	e59d3000 	ldr	r3, [sp]
     e6c:	e580300c 	str	r3, [r0, #12]
    seg->color = color;
     e70:	e1dd30f4 	ldrsh	r3, [sp, #4]
     e74:	e1c031b4 	strh	r3, [r0, #20]
    seg->rotation = 0;
     e78:	e3a03000 	mov	r3, #0
     e7c:	e5803010 	str	r3, [r0, #16]
     e80:	e12fff1e 	bx	lr

00000e84 <draw_segment>:
    //seg->rotation_speed = 0;
}

void draw_segment(Segment seg) {
     e84:	e24dd010 	sub	sp, sp, #16
     e88:	e92d4ff0 	push	{r4, r5, r6, r7, r8, r9, r10, r11, lr}
     e8c:	e24dd01c 	sub	sp, sp, #28
     e90:	e28dc03c 	add	r12, sp, #60	; 0x3c
     e94:	e98c000f 	stmib	r12, {r0, r1, r2, r3}
     e98:	e59db044 	ldr	r11, [sp, #68]	; 0x44
     e9c:	e59d9050 	ldr	r9, [sp, #80]	; 0x50
    int x = ORIGIN_X;
    //int angle = ROTATION_ANGLE * seg.section;
    int angle = seg.section;
     ea0:	e59da048 	ldr	r10, [sp, #72]	; 0x48
    int i;
    for (i = 0; i<seg.height; ++i) {
     ea4:	e35b0000 	cmp	r11, #0
     ea8:	da000037 	ble	f8c <draw_segment+0x108>
     eac:	e3a06000 	mov	r6, #0
        int y = seg.y - i;
        int half_length = y / GRADIENT;
     eb0:	e306406b 	movw	r4, #24683	; 0x606b
     eb4:	e34e4858 	movt	r4, #59480	; 0xe858
     eb8:	e30b567a 	movw	r5, #46714	; 0xb67a
     ebc:	e3435ffb 	movt	r5, #16379	; 0x3ffb
        int y1 = ORIGIN_Y - y;

        rotate(&x0, &y0, angle);
        rotate(&x1, &y1, angle);

        rotate2(&x0, &y0, GAME_STATE.SCREEN_ROTATION_ANGLE);
     ec0:	e3038b3c 	movw	r8, #15164	; 0x3b3c
     ec4:	e3408005 	movt	r8, #5
    int x = ORIGIN_X;
    //int angle = ROTATION_ANGLE * seg.section;
    int angle = seg.section;
    int i;
    for (i = 0; i<seg.height; ++i) {
        int y = seg.y - i;
     ec8:	e59d7040 	ldr	r7, [sp, #64]	; 0x40
     ecc:	e0667007 	rsb	r7, r6, r7
        int half_length = y / GRADIENT;
     ed0:	e1a00007 	mov	r0, r7
     ed4:	eb00131a 	bl	5b44 <__aeabi_i2d>
     ed8:	e1a02004 	mov	r2, r4
     edc:	e1a03005 	mov	r3, r5
     ee0:	eb0013f2 	bl	5eb0 <__aeabi_ddiv>
     ee4:	eb0014c5 	bl	6200 <__aeabi_d2iz>
        int x0 = x - half_length;
     ee8:	e260309f 	rsb	r3, r0, #159	; 0x9f
     eec:	e58d3008 	str	r3, [sp, #8]
        int x1 = x + half_length;
     ef0:	e280009f 	add	r0, r0, #159	; 0x9f
     ef4:	e58d000c 	str	r0, [sp, #12]
        int y0 = ORIGIN_Y - y;
     ef8:	e2677077 	rsb	r7, r7, #119	; 0x77
     efc:	e58d7010 	str	r7, [sp, #16]
        int y1 = ORIGIN_Y - y;
     f00:	e58d7014 	str	r7, [sp, #20]

        rotate(&x0, &y0, angle);
     f04:	e28d0008 	add	r0, sp, #8
     f08:	e28d1010 	add	r1, sp, #16
     f0c:	e1a0200a 	mov	r2, r10
     f10:	eb00007f 	bl	1114 <rotate>
        rotate(&x1, &y1, angle);
     f14:	e28d000c 	add	r0, sp, #12
     f18:	e28d1014 	add	r1, sp, #20
     f1c:	e1a0200a 	mov	r2, r10
     f20:	eb00007b 	bl	1114 <rotate>

        rotate2(&x0, &y0, GAME_STATE.SCREEN_ROTATION_ANGLE);
     f24:	e28d0008 	add	r0, sp, #8
     f28:	e28d1010 	add	r1, sp, #16
     f2c:	e5982008 	ldr	r2, [r8, #8]
     f30:	eb0000b4 	bl	1208 <rotate2>
        rotate2(&x1, &y1, GAME_STATE.SCREEN_ROTATION_ANGLE);
     f34:	e28d000c 	add	r0, sp, #12
     f38:	e28d1014 	add	r1, sp, #20
     f3c:	e5982008 	ldr	r2, [r8, #8]
     f40:	eb0000b0 	bl	1208 <rotate2>

        rotate2(&x0, &y0, seg.rotation);
     f44:	e28d0008 	add	r0, sp, #8
     f48:	e28d1010 	add	r1, sp, #16
     f4c:	e1a02009 	mov	r2, r9
     f50:	eb0000ac 	bl	1208 <rotate2>
        rotate2(&x1, &y1, seg.rotation);
     f54:	e28d000c 	add	r0, sp, #12
     f58:	e28d1014 	add	r1, sp, #20
     f5c:	e1a02009 	mov	r2, r9
     f60:	eb0000a8 	bl	1208 <rotate2>

        draw_triple_line(x0, y0, x1, y1, seg.color);
     f64:	e1dd35f4 	ldrsh	r3, [sp, #84]	; 0x54
     f68:	e58d3000 	str	r3, [sp]
     f6c:	e59d0008 	ldr	r0, [sp, #8]
     f70:	e59d1010 	ldr	r1, [sp, #16]
     f74:	e59d200c 	ldr	r2, [sp, #12]
     f78:	e59d3014 	ldr	r3, [sp, #20]
     f7c:	eb000210 	bl	17c4 <draw_triple_line>
void draw_segment(Segment seg) {
    int x = ORIGIN_X;
    //int angle = ROTATION_ANGLE * seg.section;
    int angle = seg.section;
    int i;
    for (i = 0; i<seg.height; ++i) {
     f80:	e2866001 	add	r6, r6, #1
     f84:	e156000b 	cmp	r6, r11
     f88:	1affffce 	bne	ec8 <draw_segment+0x44>
        rotate2(&x0, &y0, seg.rotation);
        rotate2(&x1, &y1, seg.rotation);

        draw_triple_line(x0, y0, x1, y1, seg.color);
    }
}
     f8c:	e28dd01c 	add	sp, sp, #28
     f90:	e8bd4ff0 	pop	{r4, r5, r6, r7, r8, r9, r10, r11, lr}
     f94:	e28dd010 	add	sp, sp, #16
     f98:	e12fff1e 	bx	lr

00000f9c <update_segment>:

void update_segment(Segment* seg) {
    if (seg->y <= ORIGIN_PADDING) {
     f9c:	e5903000 	ldr	r3, [r0]
     fa0:	e353000a 	cmp	r3, #10
        seg->y = ORIGIN_Y;
     fa4:	d3a03077 	movle	r3, #119	; 0x77
     fa8:	d5803000 	strle	r3, [r0]
        seg->speed++;
     fac:	d590300c 	ldrle	r3, [r0, #12]
     fb0:	d2833001 	addle	r3, r3, #1
     fb4:	d580300c 	strle	r3, [r0, #12]
    } else {
        seg->y -= seg->speed;
     fb8:	c590200c 	ldrgt	r2, [r0, #12]
     fbc:	c0623003 	rsbgt	r3, r2, r3
     fc0:	c5803000 	strgt	r3, [r0]
     fc4:	e12fff1e 	bx	lr

00000fc8 <abs>:
int abs(int x) {
    if (x < 0)
        return -1 * x;
    else
        return x;
}
     fc8:	e3500000 	cmp	r0, #0
     fcc:	b2600000 	rsblt	r0, r0, #0
     fd0:	e12fff1e 	bx	lr

00000fd4 <swap>:

void swap(int *x, int *y) {
    int temp = *x;
     fd4:	e5903000 	ldr	r3, [r0]
    *x = *y;
     fd8:	e5912000 	ldr	r2, [r1]
     fdc:	e5802000 	str	r2, [r0]
    *y = temp;
     fe0:	e5813000 	str	r3, [r1]
     fe4:	e12fff1e 	bx	lr

00000fe8 <inBoundsX>:
    return inBoundsX(x) && inBoundsY(y);
}

bool inBoundsX(int x) {
    return x >= 0 && x < MAX_X;
}
     fe8:	e3500d05 	cmp	r0, #320	; 0x140
     fec:	23a00000 	movcs	r0, #0
     ff0:	33a00001 	movcc	r0, #1
     ff4:	e12fff1e 	bx	lr

00000ff8 <inBoundsY>:

bool inBoundsY(int y) {
    return y >= 0 && y < MAX_Y;
}
     ff8:	e35000ef 	cmp	r0, #239	; 0xef
     ffc:	83a00000 	movhi	r0, #0
    1000:	93a00001 	movls	r0, #1
    1004:	e12fff1e 	bx	lr

00001008 <inBounds>:
    int temp = *x;
    *x = *y;
    *y = temp;
}

bool inBounds(int x, int y) {
    1008:	e92d4010 	push	{r4, lr}
    100c:	e1a04001 	mov	r4, r1
    return inBoundsX(x) && inBoundsY(y);
    1010:	ebfffff4 	bl	fe8 <inBoundsX>
    1014:	e3500000 	cmp	r0, #0
    1018:	03a00000 	moveq	r0, #0
    101c:	0a000002 	beq	102c <inBounds+0x24>
    1020:	e1a00004 	mov	r0, r4
    1024:	ebfffff3 	bl	ff8 <inBoundsY>
    1028:	eaffffff 	b	102c <inBounds+0x24>
}
    102c:	e2000001 	and	r0, r0, #1
    1030:	e8bd8010 	pop	{r4, pc}

00001034 <getCosOfSection>:
bool inBoundsY(int y) {
    return y >= 0 && y < MAX_Y;
}

double getCosOfSection(int section) {
    switch(section) {
    1034:	e2400001 	sub	r0, r0, #1
    1038:	e3500004 	cmp	r0, #4
    103c:	979ff100 	ldrls	pc, [pc, r0, lsl #2]
    1040:	ea000004 	b	1058 <getCosOfSection+0x24>
    1044:	00001098 	.word	0x00001098
    1048:	00001068 	.word	0x00001068
    104c:	00001078 	.word	0x00001078
    1050:	00001088 	.word	0x00001088
    1054:	00001098 	.word	0x00001098
        case 0:
            return 1;
    1058:	e3a00000 	mov	r0, #0
    105c:	e3a01000 	mov	r1, #0
    1060:	e3431ff0 	movt	r1, #16368	; 0x3ff0
    1064:	e12fff1e 	bx	lr
        case 1:
            return 0.5;
        case 2:
            return -0.5;
    1068:	e3a00000 	mov	r0, #0
    106c:	e3a01000 	mov	r1, #0
    1070:	e34b1fe0 	movt	r1, #49120	; 0xbfe0
    1074:	e12fff1e 	bx	lr
        case 3:
            return -1;
    1078:	e3a00000 	mov	r0, #0
    107c:	e3a01000 	mov	r1, #0
    1080:	e34b1ff0 	movt	r1, #49136	; 0xbff0
    1084:	e12fff1e 	bx	lr
        case 4:
            return -0.5;
    1088:	e3a00000 	mov	r0, #0
    108c:	e3a01000 	mov	r1, #0
    1090:	e34b1fe0 	movt	r1, #49120	; 0xbfe0
    1094:	e12fff1e 	bx	lr
double getCosOfSection(int section) {
    switch(section) {
        case 0:
            return 1;
        case 1:
            return 0.5;
    1098:	e3a00000 	mov	r0, #0
    109c:	e3a01000 	mov	r1, #0
    10a0:	e3431fe0 	movt	r1, #16352	; 0x3fe0
        case 5:
            return 0.5;
        default:
            return 1;
    }
}
    10a4:	e12fff1e 	bx	lr

000010a8 <getSinOfSection>:

double getSinOfSection(int section) {
    switch(section) {
    10a8:	e2400001 	sub	r0, r0, #1
    10ac:	e3500004 	cmp	r0, #4
    10b0:	979ff100 	ldrls	pc, [pc, r0, lsl #2]
    10b4:	ea000004 	b	10cc <getSinOfSection+0x24>
    10b8:	00001100 	.word	0x00001100
    10bc:	00001100 	.word	0x00001100
    10c0:	000010cc 	.word	0x000010cc
    10c4:	000010d8 	.word	0x000010d8
    10c8:	000010ec 	.word	0x000010ec
        case 0:
            return 0;
    10cc:	e3a00000 	mov	r0, #0
    10d0:	e3a01000 	mov	r1, #0
    10d4:	e12fff1e 	bx	lr
        case 2:
            return 0.86602540378;
        case 3:
            return 0;
        case 4:
            return -0.86602540378;
    10d8:	e30b007f 	movw	r0, #45183	; 0xb07f
    10dc:	e34e0857 	movt	r0, #59479	; 0xe857
    10e0:	e30b167a 	movw	r1, #46714	; 0xb67a
    10e4:	e34b1feb 	movt	r1, #49131	; 0xbfeb
    10e8:	e12fff1e 	bx	lr
        case 5:
            return -0.86602540378;
    10ec:	e30b007f 	movw	r0, #45183	; 0xb07f
    10f0:	e34e0857 	movt	r0, #59479	; 0xe857
    10f4:	e30b167a 	movw	r1, #46714	; 0xb67a
    10f8:	e34b1feb 	movt	r1, #49131	; 0xbfeb
    10fc:	e12fff1e 	bx	lr
double getSinOfSection(int section) {
    switch(section) {
        case 0:
            return 0;
        case 1:
            return 0.86602540378;
    1100:	e30b007f 	movw	r0, #45183	; 0xb07f
    1104:	e34e0857 	movt	r0, #59479	; 0xe857
    1108:	e30b167a 	movw	r1, #46714	; 0xb67a
    110c:	e3431feb 	movt	r1, #16363	; 0x3feb
        case 5:
            return -0.86602540378;
        default:
            return 0;
    }
}
    1110:	e12fff1e 	bx	lr

00001114 <rotate>:

void rotate(int *x, int *y, int section) {
    1114:	e92d47f0 	push	{r4, r5, r6, r7, r8, r9, r10, lr}
    1118:	e24dd018 	sub	sp, sp, #24
    111c:	e1a0a000 	mov	r10, r0
    1120:	e1a08001 	mov	r8, r1
    1124:	e1a09002 	mov	r9, r2
    int x_ = *x - ORIGIN_X;
    1128:	e5900000 	ldr	r0, [r0]
    int y_ = *y - ORIGIN_Y;

    *x = x_ * getCosOfSection(section) - y_ * getSinOfSection(section);
    112c:	e240009f 	sub	r0, r0, #159	; 0x9f
    1130:	eb001283 	bl	5b44 <__aeabi_i2d>
    1134:	e1a04000 	mov	r4, r0
    1138:	e1a05001 	mov	r5, r1
    113c:	e1a00009 	mov	r0, r9
    1140:	ebffffbb 	bl	1034 <getCosOfSection>
    1144:	e1a06000 	mov	r6, r0
    1148:	e1a07001 	mov	r7, r1
    114c:	e1a00004 	mov	r0, r4
    1150:	e1a01005 	mov	r1, r5
    1154:	e1a02006 	mov	r2, r6
    1158:	e1a03007 	mov	r3, r7
    115c:	eb0012af 	bl	5c20 <__aeabi_dmul>
    1160:	e1cd01f0 	strd	r0, [sp, #16]
    }
}

void rotate(int *x, int *y, int section) {
    int x_ = *x - ORIGIN_X;
    int y_ = *y - ORIGIN_Y;
    1164:	e5980000 	ldr	r0, [r8]

    *x = x_ * getCosOfSection(section) - y_ * getSinOfSection(section);
    1168:	e2400077 	sub	r0, r0, #119	; 0x77
    116c:	eb001274 	bl	5b44 <__aeabi_i2d>
    1170:	e1cd00f0 	strd	r0, [sp]
    1174:	e1a00009 	mov	r0, r9
    1178:	ebffffca 	bl	10a8 <getSinOfSection>
    117c:	e1cd00f8 	strd	r0, [sp, #8]
    1180:	e1cd00d0 	ldrd	r0, [sp]
    1184:	e1cd20d8 	ldrd	r2, [sp, #8]
    1188:	eb0012a4 	bl	5c20 <__aeabi_dmul>
    118c:	e1a02000 	mov	r2, r0
    1190:	e1a03001 	mov	r3, r1
    1194:	e1cd01d0 	ldrd	r0, [sp, #16]
    1198:	eb00119b 	bl	580c <__aeabi_dsub>
    119c:	eb001417 	bl	6200 <__aeabi_d2iz>
    11a0:	e58a0000 	str	r0, [r10]
    *y = y_ * getCosOfSection(section) + x_ * getSinOfSection(section);
    11a4:	e1a00006 	mov	r0, r6
    11a8:	e1a01007 	mov	r1, r7
    11ac:	e1cd20d0 	ldrd	r2, [sp]
    11b0:	eb00129a 	bl	5c20 <__aeabi_dmul>
    11b4:	e1a06000 	mov	r6, r0
    11b8:	e1a07001 	mov	r7, r1
    11bc:	e1a00004 	mov	r0, r4
    11c0:	e1a01005 	mov	r1, r5
    11c4:	e1cd20d8 	ldrd	r2, [sp, #8]
    11c8:	eb001294 	bl	5c20 <__aeabi_dmul>
    11cc:	e1a02000 	mov	r2, r0
    11d0:	e1a03001 	mov	r3, r1
    11d4:	e1a00006 	mov	r0, r6
    11d8:	e1a01007 	mov	r1, r7
    11dc:	eb00118b 	bl	5810 <__adddf3>
    11e0:	eb001406 	bl	6200 <__aeabi_d2iz>
    11e4:	e5880000 	str	r0, [r8]

    *x += ORIGIN_X;
    11e8:	e59a3000 	ldr	r3, [r10]
    11ec:	e283309f 	add	r3, r3, #159	; 0x9f
    11f0:	e58a3000 	str	r3, [r10]
    *y += ORIGIN_Y;
    11f4:	e5983000 	ldr	r3, [r8]
    11f8:	e2833077 	add	r3, r3, #119	; 0x77
    11fc:	e5883000 	str	r3, [r8]
}
    1200:	e28dd018 	add	sp, sp, #24
    1204:	e8bd87f0 	pop	{r4, r5, r6, r7, r8, r9, r10, pc}

00001208 <rotate2>:

void rotate2(int *x, int *y, float angle) {
    1208:	e92d47f0 	push	{r4, r5, r6, r7, r8, r9, r10, lr}
    120c:	e1a07000 	mov	r7, r0
    1210:	e1a06001 	mov	r6, r1
    if (angle <= 0.1)
    1214:	e1a00002 	mov	r0, r2
    1218:	eb001253 	bl	5b6c <__aeabi_f2d>
    121c:	e1a04000 	mov	r4, r0
    1220:	e1a05001 	mov	r5, r1
    1224:	e309299a 	movw	r2, #39322	; 0x999a
    1228:	e3492999 	movt	r2, #39321	; 0x9999
    122c:	e3093999 	movw	r3, #39321	; 0x9999
    1230:	e3433fb9 	movt	r3, #16313	; 0x3fb9
    1234:	eb0013df 	bl	61b8 <__aeabi_dcmple>
    1238:	e3500000 	cmp	r0, #0
    123c:	18bd87f0 	popne	{r4, r5, r6, r7, r8, r9, r10, pc}
        return;

    int x_ = *x - ORIGIN_X;
    int y_ = *y - ORIGIN_Y;

    angle *= DEG_TO_RAD;
    1240:	e1a00004 	mov	r0, r4
    1244:	e1a01005 	mov	r1, r5
    1248:	e30d2d11 	movw	r2, #56593	; 0xdd11
    124c:	e34a2252 	movt	r2, #41554	; 0xa252
    1250:	e30d3f46 	movw	r3, #57158	; 0xdf46
    1254:	e3433f91 	movt	r3, #16273	; 0x3f91
    1258:	eb001270 	bl	5c20 <__aeabi_dmul>
    125c:	eb0013fe 	bl	625c <__aeabi_d2f>

    float c = cos(angle);
    1260:	eb001241 	bl	5b6c <__aeabi_f2d>
    1264:	e1a04000 	mov	r4, r0
    1268:	e1a05001 	mov	r5, r1
    126c:	eb00078d 	bl	30a8 <cos>
    1270:	eb0013f9 	bl	625c <__aeabi_d2f>
    1274:	e1a0a000 	mov	r10, r0
    float s = sin(angle);
    1278:	e1a00004 	mov	r0, r4
    127c:	e1a01005 	mov	r1, r5
    1280:	eb0007c5 	bl	319c <sin>
    1284:	eb0013f4 	bl	625c <__aeabi_d2f>
    1288:	e1a05000 	mov	r5, r0

void rotate2(int *x, int *y, float angle) {
    if (angle <= 0.1)
        return;

    int x_ = *x - ORIGIN_X;
    128c:	e5970000 	ldr	r0, [r7]

    angle *= DEG_TO_RAD;

    float c = cos(angle);
    float s = sin(angle);
    *x = x_ * c - y_ * s;
    1290:	e240009f 	sub	r0, r0, #159	; 0x9f
    1294:	eb00148c 	bl	64cc <__aeabi_i2f>
    1298:	e1a04000 	mov	r4, r0
void rotate2(int *x, int *y, float angle) {
    if (angle <= 0.1)
        return;

    int x_ = *x - ORIGIN_X;
    int y_ = *y - ORIGIN_Y;
    129c:	e5960000 	ldr	r0, [r6]

    angle *= DEG_TO_RAD;

    float c = cos(angle);
    float s = sin(angle);
    *x = x_ * c - y_ * s;
    12a0:	e2400077 	sub	r0, r0, #119	; 0x77
    12a4:	eb001488 	bl	64cc <__aeabi_i2f>
    12a8:	e1a08000 	mov	r8, r0
    12ac:	e1a00004 	mov	r0, r4
    12b0:	e1a0100a 	mov	r1, r10
    12b4:	eb0014bb 	bl	65a8 <__aeabi_fmul>
    12b8:	e1a09000 	mov	r9, r0
    12bc:	e1a00008 	mov	r0, r8
    12c0:	e1a01005 	mov	r1, r5
    12c4:	eb0014b7 	bl	65a8 <__aeabi_fmul>
    12c8:	e1a01000 	mov	r1, r0
    12cc:	e1a00009 	mov	r0, r9
    12d0:	eb00140b 	bl	6304 <__aeabi_fsub>
    12d4:	eb0015b6 	bl	69b4 <__aeabi_f2iz>
    12d8:	e5870000 	str	r0, [r7]
    *y = y_ * c + x_ * s;
    12dc:	e1a0000a 	mov	r0, r10
    12e0:	e1a01008 	mov	r1, r8
    12e4:	eb0014af 	bl	65a8 <__aeabi_fmul>
    12e8:	e1a08000 	mov	r8, r0
    12ec:	e1a00005 	mov	r0, r5
    12f0:	e1a01004 	mov	r1, r4
    12f4:	eb0014ab 	bl	65a8 <__aeabi_fmul>
    12f8:	e1a01000 	mov	r1, r0
    12fc:	e1a00008 	mov	r0, r8
    1300:	eb001400 	bl	6308 <__addsf3>
    1304:	eb0015aa 	bl	69b4 <__aeabi_f2iz>
    1308:	e5860000 	str	r0, [r6]

    *x += ORIGIN_X;
    130c:	e5973000 	ldr	r3, [r7]
    1310:	e283309f 	add	r3, r3, #159	; 0x9f
    1314:	e5873000 	str	r3, [r7]
    *y += ORIGIN_Y;
    1318:	e5963000 	ldr	r3, [r6]
    131c:	e2833077 	add	r3, r3, #119	; 0x77
    1320:	e5863000 	str	r3, [r6]
    1324:	e8bd87f0 	pop	{r4, r5, r6, r7, r8, r9, r10, pc}

00001328 <turnOnLED>:
}

void turnOnLED(int index) {
    volatile int * ledr = (int *) LEDR_BASE;
    int value = 1 << index;
    value = *ledr | value;
    1328:	e3a03000 	mov	r3, #0
    132c:	e34f3f20 	movt	r3, #65312	; 0xff20
    1330:	e5932000 	ldr	r2, [r3]
    1334:	e3a01001 	mov	r1, #1
    1338:	e1820011 	orr	r0, r2, r1, lsl r0
    *ledr = value;
    133c:	e5830000 	str	r0, [r3]
    1340:	e12fff1e 	bx	lr

00001344 <turnOffLED>:
}

void turnOffLED(int index) {
    volatile int * ledr = (int *) LEDR_BASE;
    int value = 0x3FF;
    int i = 1 << index;
    1344:	e3a03001 	mov	r3, #1
    1348:	e1a00013 	lsl	r0, r3, r0
    value = value ^ i;
    134c:	e2200fff 	eor	r0, r0, #1020	; 0x3fc
    1350:	e2200003 	eor	r0, r0, #3
    value = *ledr & value;
    1354:	e3a03000 	mov	r3, #0
    1358:	e34f3f20 	movt	r3, #65312	; 0xff20
    135c:	e5932000 	ldr	r2, [r3]
    1360:	e0000002 	and	r0, r0, r2
    *ledr = value;
    1364:	e5830000 	str	r0, [r3]
    1368:	e12fff1e 	bx	lr

0000136c <setLED>:
    *x += ORIGIN_X;
    *y += ORIGIN_Y;
}


void setLED(int index, bool value) {
    136c:	e92d4008 	push	{r3, lr}
    if (value)
    1370:	e3510000 	cmp	r1, #0
    1374:	0a000001 	beq	1380 <setLED+0x14>
        turnOnLED(index);
    1378:	ebffffea 	bl	1328 <turnOnLED>
    137c:	e8bd8008 	pop	{r3, pc}
    else
        turnOffLED(index);
    1380:	ebffffef 	bl	1344 <turnOffLED>
    1384:	e8bd8008 	pop	{r3, pc}

00001388 <turnOnAllLED>:
    value = *ledr & value;
    *ledr = value;
}

void turnOnAllLED(){
    *((int *) LEDR_BASE) = 0x3FF;
    1388:	e3a03000 	mov	r3, #0
    138c:	e34f3f20 	movt	r3, #65312	; 0xff20
    1390:	e30023ff 	movw	r2, #1023	; 0x3ff
    1394:	e5832000 	str	r2, [r3]
    1398:	e12fff1e 	bx	lr

0000139c <turnOffAllLED>:
}

void turnOffAllLED() {
    *((int *) LEDR_BASE) = 0;
    139c:	e3a03000 	mov	r3, #0
    13a0:	e34f3f20 	movt	r3, #65312	; 0xff20
    13a4:	e3a02000 	mov	r2, #0
    13a8:	e5832000 	str	r2, [r3]
    13ac:	e12fff1e 	bx	lr

000013b0 <getColor>:
}

short int getColor(short int red, short int green, short int blue) {
    return (red << 11) | (green << 5) | blue;
    13b0:	e1820580 	orr	r0, r2, r0, lsl #11
    13b4:	e1800281 	orr	r0, r0, r1, lsl #5
    13b8:	e6bf0070 	sxth	r0, r0
    13bc:	e12fff1e 	bx	lr

000013c0 <plot_pixel>:
    }

}

void plot_pixel(int x, int y, short int line_color)
{
    13c0:	e92d4070 	push	{r4, r5, r6, lr}
    13c4:	e1a06000 	mov	r6, r0
    13c8:	e1a05001 	mov	r5, r1
    13cc:	e1a04002 	mov	r4, r2
    if (inBounds(x, y))
    13d0:	ebffff0c 	bl	1008 <inBounds>
    13d4:	e3500000 	cmp	r0, #0
    13d8:	08bd8070 	popeq	{r4, r5, r6, pc}
        *(short int *)(pixel_buffer_start + (y << 10) + (x << 1)) = line_color;
    13dc:	e3033b1c 	movw	r3, #15132	; 0x3b1c
    13e0:	e3403005 	movt	r3, #5
    13e4:	e5933000 	ldr	r3, [r3]
    13e8:	e1a06086 	lsl	r6, r6, #1
    13ec:	e0835505 	add	r5, r3, r5, lsl #10
    13f0:	e18540b6 	strh	r4, [r5, r6]
    13f4:	e8bd8070 	pop	{r4, r5, r6, pc}

000013f8 <draw_line>:
            plot_char(x, y, clear_char);
        }
    }
}

void draw_line(int x0, int y0, int x1, int y1, short int color) {
    13f8:	e92d4ff0 	push	{r4, r5, r6, r7, r8, r9, r10, r11, lr}
    13fc:	e24dd014 	sub	sp, sp, #20
    1400:	e58d000c 	str	r0, [sp, #12]
    1404:	e58d1008 	str	r1, [sp, #8]
    1408:	e58d2004 	str	r2, [sp, #4]
    140c:	e58d3000 	str	r3, [sp]
    1410:	e1dda3f8 	ldrsh	r10, [sp, #56]	; 0x38
    bool is_steep;
    if (abs(y1 - y0) > abs(x1 - x0))
    1414:	e0613003 	rsb	r3, r1, r3
    1418:	e3530000 	cmp	r3, #0
    141c:	b2633000 	rsblt	r3, r3, #0
    1420:	e0602002 	rsb	r2, r0, r2
    1424:	e0228fc2 	eor	r8, r2, r2, asr #31
    1428:	e0488fc2 	sub	r8, r8, r2, asr #31
    142c:	e1530008 	cmp	r3, r8
    1430:	d3a08000 	movle	r8, #0
    1434:	c3a08001 	movgt	r8, #1
        is_steep = true;
    else
        is_steep = false;
    if (is_steep) {
    1438:	e3580000 	cmp	r8, #0
    143c:	0a000005 	beq	1458 <draw_line+0x60>
        swap(&x0, &y0);
    1440:	e28d000c 	add	r0, sp, #12
    1444:	e28d1008 	add	r1, sp, #8
    1448:	ebfffee1 	bl	fd4 <swap>
        swap(&x1, &y1);
    144c:	e28d0004 	add	r0, sp, #4
    1450:	e1a0100d 	mov	r1, sp
    1454:	ebfffede 	bl	fd4 <swap>
    }
    if (x0 > x1) {
    1458:	e59d3004 	ldr	r3, [sp, #4]
    145c:	e59d200c 	ldr	r2, [sp, #12]
    1460:	e1520003 	cmp	r2, r3
    1464:	da000005 	ble	1480 <draw_line+0x88>
        swap(&x0, &x1);
    1468:	e28d000c 	add	r0, sp, #12
    146c:	e28d1004 	add	r1, sp, #4
    1470:	ebfffed7 	bl	fd4 <swap>
        swap(&y0, &y1);
    1474:	e28d0008 	add	r0, sp, #8
    1478:	e1a0100d 	mov	r1, sp
    147c:	ebfffed4 	bl	fd4 <swap>
    }
    int deltax = x1 - x0;
    1480:	e59d3004 	ldr	r3, [sp, #4]
    1484:	e59d500c 	ldr	r5, [sp, #12]
    1488:	e0659003 	rsb	r9, r5, r3
    int deltay = abs(y1 - y0);
    148c:	e59d2000 	ldr	r2, [sp]
    1490:	e59d6008 	ldr	r6, [sp, #8]
    1494:	e0667002 	rsb	r7, r6, r2
    1498:	e3570000 	cmp	r7, #0
    149c:	b2677000 	rsblt	r7, r7, #0
    int error = -(deltax / 2);
    14a0:	e0894fa9 	add	r4, r9, r9, lsr #31
    14a4:	e1a040c4 	asr	r4, r4, #1
    14a8:	e2644000 	rsb	r4, r4, #0
    int y = y0;
    int y_step;
    if (y0 < y1)
        y_step = 1;
    14ac:	e1520006 	cmp	r2, r6
    14b0:	d3e0b000 	mvnle	r11, #0
    14b4:	c3a0b001 	movgt	r11, #1
    else
        y_step = -1;

    int x;
    for (x = x0; x <= x1; ++x) {
    14b8:	e1530005 	cmp	r3, r5
    14bc:	ba00000d 	blt	14f8 <draw_line+0x100>
        if (is_steep)
    14c0:	e3580000 	cmp	r8, #0
            plot_pixel(y, x, color);
    14c4:	11a00006 	movne	r0, r6
    14c8:	11a01005 	movne	r1, r5
        else
            plot_pixel(x, y, color);
    14cc:	01a00005 	moveq	r0, r5
    14d0:	01a01006 	moveq	r1, r6
    14d4:	e1a0200a 	mov	r2, r10
    14d8:	ebffffb8 	bl	13c0 <plot_pixel>
        error = error + deltay;
        if (error >= 0) {
    14dc:	e0944007 	adds	r4, r4, r7
            y = y + y_step;
    14e0:	5086600b 	addpl	r6, r6, r11
            error = error - deltax;
    14e4:	50694004 	rsbpl	r4, r9, r4
        y_step = 1;
    else
        y_step = -1;

    int x;
    for (x = x0; x <= x1; ++x) {
    14e8:	e2855001 	add	r5, r5, #1
    14ec:	e59d3004 	ldr	r3, [sp, #4]
    14f0:	e1530005 	cmp	r3, r5
    14f4:	aafffff1 	bge	14c0 <draw_line+0xc8>
            y = y + y_step;
            error = error - deltax;
        }
    }

}
    14f8:	e28dd014 	add	sp, sp, #20
    14fc:	e8bd8ff0 	pop	{r4, r5, r6, r7, r8, r9, r10, r11, pc}

00001500 <clear_screen>:
    *(pixel_ctrl_ptr + 1) = 0xC0000000;
    //*(pixel_ctrl_ptr + 1) = 0xC8000000;
    pixel_buffer_start = *(pixel_ctrl_ptr + 1); // we draw on the back buffer
}

void clear_screen() {
    1500:	e92d4070 	push	{r4, r5, r6, lr}
    int x_max = 320;
    int y_max = 240;
    int x, y;
    short int black = 0;
    for (x = 0; x < x_max; ++x) {
    1504:	e3a05000 	mov	r5, #0
    *(pixel_ctrl_ptr + 1) = 0xC0000000;
    //*(pixel_ctrl_ptr + 1) = 0xC8000000;
    pixel_buffer_start = *(pixel_ctrl_ptr + 1); // we draw on the back buffer
}

void clear_screen() {
    1508:	e1a06005 	mov	r6, r5
    150c:	ea000009 	b	1538 <clear_screen+0x38>
    int y_max = 240;
    int x, y;
    short int black = 0;
    for (x = 0; x < x_max; ++x) {
        for (y = 0; y < y_max; ++y) {
            plot_pixel(x, y, black);
    1510:	e1a00005 	mov	r0, r5
    1514:	e1a01004 	mov	r1, r4
    1518:	e1a02006 	mov	r2, r6
    151c:	ebffffa7 	bl	13c0 <plot_pixel>
    int x_max = 320;
    int y_max = 240;
    int x, y;
    short int black = 0;
    for (x = 0; x < x_max; ++x) {
        for (y = 0; y < y_max; ++y) {
    1520:	e2844001 	add	r4, r4, #1
    1524:	e35400f0 	cmp	r4, #240	; 0xf0
    1528:	1afffff8 	bne	1510 <clear_screen+0x10>
void clear_screen() {
    int x_max = 320;
    int y_max = 240;
    int x, y;
    short int black = 0;
    for (x = 0; x < x_max; ++x) {
    152c:	e2855001 	add	r5, r5, #1
    1530:	e3550d05 	cmp	r5, #320	; 0x140
    1534:	08bd8070 	popeq	{r4, r5, r6, pc}
    *(pixel_ctrl_ptr + 1) = 0xC0000000;
    //*(pixel_ctrl_ptr + 1) = 0xC8000000;
    pixel_buffer_start = *(pixel_ctrl_ptr + 1); // we draw on the back buffer
}

void clear_screen() {
    1538:	e1a04006 	mov	r4, r6
    153c:	eafffff3 	b	1510 <clear_screen+0x10>

00001540 <plot_char>:
        *(short int *)(pixel_buffer_start + (y << 10) + (x << 1)) = line_color;
}

void plot_char(int x, int y, char c) {
    volatile char * character_buffer = (char *) FPGA_CHAR_BASE;
    int offset = (y << 7) + x;
    1540:	e0801381 	add	r1, r0, r1, lsl #7
    *(character_buffer + offset) = c;
    1544:	e28114c9 	add	r1, r1, #-922746880	; 0xc9000000
    1548:	e5c12000 	strb	r2, [r1]
    154c:	e12fff1e 	bx	lr

00001550 <clear_char_buffer>:
            plot_pixel(x, y, black);
        }
    }
}

void clear_char_buffer() {
    1550:	e92d4070 	push	{r4, r5, r6, lr}
    int x_max = 80;
    int y_max = 60;
    int x, y;
    char clear_char = '\0';
    for (x = 0; x < x_max; ++x) {
    1554:	e3a05000 	mov	r5, #0
            plot_pixel(x, y, black);
        }
    }
}

void clear_char_buffer() {
    1558:	e1a06005 	mov	r6, r5
    155c:	ea000009 	b	1588 <clear_char_buffer+0x38>
    int y_max = 60;
    int x, y;
    char clear_char = '\0';
    for (x = 0; x < x_max; ++x) {
        for (y = 0; y < y_max; ++y) {
            plot_char(x, y, clear_char);
    1560:	e1a00005 	mov	r0, r5
    1564:	e1a01004 	mov	r1, r4
    1568:	e1a02006 	mov	r2, r6
    156c:	ebfffff3 	bl	1540 <plot_char>
    int x_max = 80;
    int y_max = 60;
    int x, y;
    char clear_char = '\0';
    for (x = 0; x < x_max; ++x) {
        for (y = 0; y < y_max; ++y) {
    1570:	e2844001 	add	r4, r4, #1
    1574:	e354003c 	cmp	r4, #60	; 0x3c
    1578:	1afffff8 	bne	1560 <clear_char_buffer+0x10>
void clear_char_buffer() {
    int x_max = 80;
    int y_max = 60;
    int x, y;
    char clear_char = '\0';
    for (x = 0; x < x_max; ++x) {
    157c:	e2855001 	add	r5, r5, #1
    1580:	e3550050 	cmp	r5, #80	; 0x50
    1584:	08bd8070 	popeq	{r4, r5, r6, pc}
            plot_pixel(x, y, black);
        }
    }
}

void clear_char_buffer() {
    1588:	e1a04006 	mov	r4, r6
    158c:	eafffff3 	b	1560 <clear_char_buffer+0x10>

00001590 <plot_text>:
    *(character_buffer + offset) = c;
}

void plot_text(int x, int y, char * text) {
    volatile char * character_buffer = (char *) FPGA_CHAR_BASE;
    int offset = (y << 7) + x;
    1590:	e0801381 	add	r1, r0, r1, lsl #7
    while (*text)
    1594:	e5d23000 	ldrb	r3, [r2]
    1598:	e3530000 	cmp	r3, #0
    159c:	012fff1e 	bxeq	lr
    15a0:	e1a0c002 	mov	r12, r2
    volatile char * character_buffer = (char *) FPGA_CHAR_BASE;
    int offset = (y << 7) + x;
    *(character_buffer + offset) = c;
}

void plot_text(int x, int y, char * text) {
    15a4:	e0622001 	rsb	r2, r2, r1
    15a8:	e28224c9 	add	r2, r2, #-922746880	; 0xc9000000
    volatile char * character_buffer = (char *) FPGA_CHAR_BASE;
    int offset = (y << 7) + x;
    while (*text)
        *(character_buffer + offset++) = *(text++);
    15ac:	e7c2300c 	strb	r3, [r2, r12]
}

void plot_text(int x, int y, char * text) {
    volatile char * character_buffer = (char *) FPGA_CHAR_BASE;
    int offset = (y << 7) + x;
    while (*text)
    15b0:	e5fc3001 	ldrb	r3, [r12, #1]!
    15b4:	e3530000 	cmp	r3, #0
    15b8:	1afffffb 	bne	15ac <plot_text+0x1c>
    15bc:	e12fff1e 	bx	lr

000015c0 <plot_double_pixel>:
    }

}

void plot_double_pixel(int x, int y, short int line_color)
{
    15c0:	e92d4070 	push	{r4, r5, r6, lr}
    15c4:	e1a04000 	mov	r4, r0
    15c8:	e1a05001 	mov	r5, r1
    15cc:	e1a06002 	mov	r6, r2
    if (inBounds(x, y))
    15d0:	ebfffe8c 	bl	1008 <inBounds>
    15d4:	e3500000 	cmp	r0, #0
    15d8:	0a000005 	beq	15f4 <plot_double_pixel+0x34>
        *(short int *)(pixel_buffer_start + (y << 10) + (x << 1)) = line_color;
    15dc:	e3033b1c 	movw	r3, #15132	; 0x3b1c
    15e0:	e3403005 	movt	r3, #5
    15e4:	e5932000 	ldr	r2, [r3]
    15e8:	e1a03084 	lsl	r3, r4, #1
    15ec:	e0822505 	add	r2, r2, r5, lsl #10
    15f0:	e18260b3 	strh	r6, [r2, r3]
    if (inBounds(x, y+1))
    15f4:	e2855001 	add	r5, r5, #1
    15f8:	e1a00004 	mov	r0, r4
    15fc:	e1a01005 	mov	r1, r5
    1600:	ebfffe80 	bl	1008 <inBounds>
    1604:	e3500000 	cmp	r0, #0
    1608:	08bd8070 	popeq	{r4, r5, r6, pc}
        *(short int *)(pixel_buffer_start + ((y+1) << 10) + (x << 1)) = line_color;
    160c:	e3033b1c 	movw	r3, #15132	; 0x3b1c
    1610:	e3403005 	movt	r3, #5
    1614:	e5933000 	ldr	r3, [r3]
    1618:	e1a04084 	lsl	r4, r4, #1
    161c:	e0835505 	add	r5, r3, r5, lsl #10
    1620:	e18560b4 	strh	r6, [r5, r4]
    1624:	e8bd8070 	pop	{r4, r5, r6, pc}

00001628 <draw_double_line>:
    int offset = (y << 7) + x;
    while (*text)
        *(character_buffer + offset++) = *(text++);
}

void draw_double_line(int x0, int y0, int x1, int y1, short int color) {
    1628:	e92d4ff0 	push	{r4, r5, r6, r7, r8, r9, r10, r11, lr}
    162c:	e24dd014 	sub	sp, sp, #20
    1630:	e58d000c 	str	r0, [sp, #12]
    1634:	e58d1008 	str	r1, [sp, #8]
    1638:	e58d2004 	str	r2, [sp, #4]
    163c:	e58d3000 	str	r3, [sp]
    1640:	e1dda3f8 	ldrsh	r10, [sp, #56]	; 0x38
    bool is_steep;
    if (abs(y1 - y0) > abs(x1 - x0))
    1644:	e0613003 	rsb	r3, r1, r3
    1648:	e3530000 	cmp	r3, #0
    164c:	b2633000 	rsblt	r3, r3, #0
    1650:	e0602002 	rsb	r2, r0, r2
    1654:	e0228fc2 	eor	r8, r2, r2, asr #31
    1658:	e0488fc2 	sub	r8, r8, r2, asr #31
    165c:	e1530008 	cmp	r3, r8
    1660:	d3a08000 	movle	r8, #0
    1664:	c3a08001 	movgt	r8, #1
        is_steep = true;
    else
        is_steep = false;
    if (is_steep) {
    1668:	e3580000 	cmp	r8, #0
    166c:	0a000005 	beq	1688 <draw_double_line+0x60>
        swap(&x0, &y0);
    1670:	e28d000c 	add	r0, sp, #12
    1674:	e28d1008 	add	r1, sp, #8
    1678:	ebfffe55 	bl	fd4 <swap>
        swap(&x1, &y1);
    167c:	e28d0004 	add	r0, sp, #4
    1680:	e1a0100d 	mov	r1, sp
    1684:	ebfffe52 	bl	fd4 <swap>
    }
    if (x0 > x1) {
    1688:	e59d3004 	ldr	r3, [sp, #4]
    168c:	e59d200c 	ldr	r2, [sp, #12]
    1690:	e1520003 	cmp	r2, r3
    1694:	da000005 	ble	16b0 <draw_double_line+0x88>
        swap(&x0, &x1);
    1698:	e28d000c 	add	r0, sp, #12
    169c:	e28d1004 	add	r1, sp, #4
    16a0:	ebfffe4b 	bl	fd4 <swap>
        swap(&y0, &y1);
    16a4:	e28d0008 	add	r0, sp, #8
    16a8:	e1a0100d 	mov	r1, sp
    16ac:	ebfffe48 	bl	fd4 <swap>
    }
    int deltax = x1 - x0;
    16b0:	e59d3004 	ldr	r3, [sp, #4]
    16b4:	e59d500c 	ldr	r5, [sp, #12]
    16b8:	e0659003 	rsb	r9, r5, r3
    int deltay = abs(y1 - y0);
    16bc:	e59d2000 	ldr	r2, [sp]
    16c0:	e59d6008 	ldr	r6, [sp, #8]
    16c4:	e0667002 	rsb	r7, r6, r2
    16c8:	e3570000 	cmp	r7, #0
    16cc:	b2677000 	rsblt	r7, r7, #0
    int error = -(deltax / 2);
    16d0:	e0894fa9 	add	r4, r9, r9, lsr #31
    16d4:	e1a040c4 	asr	r4, r4, #1
    16d8:	e2644000 	rsb	r4, r4, #0
    int y = y0;
    int y_step;
    if (y0 < y1)
        y_step = 1;
    16dc:	e1520006 	cmp	r2, r6
    16e0:	d3e0b000 	mvnle	r11, #0
    16e4:	c3a0b001 	movgt	r11, #1
    else
        y_step = -1;

    int x;
    for (x = x0; x <= x1; ++x) {
    16e8:	e1530005 	cmp	r3, r5
    16ec:	ba00000d 	blt	1728 <draw_double_line+0x100>
        if (is_steep)
    16f0:	e3580000 	cmp	r8, #0
            plot_double_pixel(y, x, color);
    16f4:	11a00006 	movne	r0, r6
    16f8:	11a01005 	movne	r1, r5
        else
            plot_double_pixel(x, y, color);
    16fc:	01a00005 	moveq	r0, r5
    1700:	01a01006 	moveq	r1, r6
    1704:	e1a0200a 	mov	r2, r10
    1708:	ebffffac 	bl	15c0 <plot_double_pixel>
        error = error + deltay;
        if (error >= 0) {
    170c:	e0944007 	adds	r4, r4, r7
            y = y + y_step;
    1710:	5086600b 	addpl	r6, r6, r11
            error = error - deltax;
    1714:	50694004 	rsbpl	r4, r9, r4
        y_step = 1;
    else
        y_step = -1;

    int x;
    for (x = x0; x <= x1; ++x) {
    1718:	e2855001 	add	r5, r5, #1
    171c:	e59d3004 	ldr	r3, [sp, #4]
    1720:	e1530005 	cmp	r3, r5
    1724:	aafffff1 	bge	16f0 <draw_double_line+0xc8>
            y = y + y_step;
            error = error - deltax;
        }
    }

}
    1728:	e28dd014 	add	sp, sp, #20
    172c:	e8bd8ff0 	pop	{r4, r5, r6, r7, r8, r9, r10, r11, pc}

00001730 <plot_triple_pixel>:
    }

}

void plot_triple_pixel(int x, int y, short int line_color)
{
    1730:	e92d40f8 	push	{r3, r4, r5, r6, r7, lr}
    1734:	e1a06000 	mov	r6, r0
    1738:	e1a04001 	mov	r4, r1
    173c:	e1a05002 	mov	r5, r2
    if (inBoundsY(y))
    1740:	e1a00001 	mov	r0, r1
    1744:	ebfffe2b 	bl	ff8 <inBoundsY>
    1748:	e3500000 	cmp	r0, #0
    174c:	0a000005 	beq	1768 <plot_triple_pixel+0x38>
        *(short int *)(pixel_buffer_start + (y << 10) + (x << 1)) = line_color;
    1750:	e3033b1c 	movw	r3, #15132	; 0x3b1c
    1754:	e3403005 	movt	r3, #5
    1758:	e5932000 	ldr	r2, [r3]
    175c:	e1a03086 	lsl	r3, r6, #1
    1760:	e0822504 	add	r2, r2, r4, lsl #10
    1764:	e18250b3 	strh	r5, [r2, r3]
    if (inBoundsY(y+1))
    1768:	e2847001 	add	r7, r4, #1
    176c:	e1a00007 	mov	r0, r7
    1770:	ebfffe20 	bl	ff8 <inBoundsY>
    1774:	e3500000 	cmp	r0, #0
    1778:	0a000005 	beq	1794 <plot_triple_pixel+0x64>
        *(short int *)(pixel_buffer_start + ((y+1) << 10) + (x << 1)) = line_color;
    177c:	e3033b1c 	movw	r3, #15132	; 0x3b1c
    1780:	e3403005 	movt	r3, #5
    1784:	e5932000 	ldr	r2, [r3]
    1788:	e1a03086 	lsl	r3, r6, #1
    178c:	e0827507 	add	r7, r2, r7, lsl #10
    1790:	e18750b3 	strh	r5, [r7, r3]
    if (inBoundsY(y-1))
    1794:	e2444001 	sub	r4, r4, #1
    1798:	e1a00004 	mov	r0, r4
    179c:	ebfffe15 	bl	ff8 <inBoundsY>
    17a0:	e3500000 	cmp	r0, #0
    17a4:	08bd80f8 	popeq	{r3, r4, r5, r6, r7, pc}
        *(short int *)(pixel_buffer_start + ((y-1) << 10) + (x << 1)) = line_color;
    17a8:	e3033b1c 	movw	r3, #15132	; 0x3b1c
    17ac:	e3403005 	movt	r3, #5
    17b0:	e5933000 	ldr	r3, [r3]
    17b4:	e1a06086 	lsl	r6, r6, #1
    17b8:	e0834504 	add	r4, r3, r4, lsl #10
    17bc:	e18450b6 	strh	r5, [r4, r6]
    17c0:	e8bd80f8 	pop	{r3, r4, r5, r6, r7, pc}

000017c4 <draw_triple_line>:
        *(short int *)(pixel_buffer_start + (y << 10) + (x << 1)) = line_color;
    if (inBounds(x, y+1))
        *(short int *)(pixel_buffer_start + ((y+1) << 10) + (x << 1)) = line_color;
}

void draw_triple_line(int x0, int y0, int x1, int y1, short int color) {
    17c4:	e92d4ff0 	push	{r4, r5, r6, r7, r8, r9, r10, r11, lr}
    17c8:	e24dd014 	sub	sp, sp, #20
    17cc:	e58d000c 	str	r0, [sp, #12]
    17d0:	e58d1008 	str	r1, [sp, #8]
    17d4:	e58d2004 	str	r2, [sp, #4]
    17d8:	e58d3000 	str	r3, [sp]
    17dc:	e1dda3f8 	ldrsh	r10, [sp, #56]	; 0x38
    bool is_steep;
    if (abs(y1 - y0) > abs(x1 - x0))
    17e0:	e0613003 	rsb	r3, r1, r3
    17e4:	e3530000 	cmp	r3, #0
    17e8:	b2633000 	rsblt	r3, r3, #0
    17ec:	e0602002 	rsb	r2, r0, r2
    17f0:	e0228fc2 	eor	r8, r2, r2, asr #31
    17f4:	e0488fc2 	sub	r8, r8, r2, asr #31
    17f8:	e1530008 	cmp	r3, r8
    17fc:	d3a08000 	movle	r8, #0
    1800:	c3a08001 	movgt	r8, #1
        is_steep = true;
    else
        is_steep = false;
    if (is_steep) {
    1804:	e3580000 	cmp	r8, #0
    1808:	0a000005 	beq	1824 <draw_triple_line+0x60>
        swap(&x0, &y0);
    180c:	e28d000c 	add	r0, sp, #12
    1810:	e28d1008 	add	r1, sp, #8
    1814:	ebfffdee 	bl	fd4 <swap>
        swap(&x1, &y1);
    1818:	e28d0004 	add	r0, sp, #4
    181c:	e1a0100d 	mov	r1, sp
    1820:	ebfffdeb 	bl	fd4 <swap>
    }
    if (x0 > x1) {
    1824:	e59d3004 	ldr	r3, [sp, #4]
    1828:	e59d200c 	ldr	r2, [sp, #12]
    182c:	e1520003 	cmp	r2, r3
    1830:	da000005 	ble	184c <draw_triple_line+0x88>
        swap(&x0, &x1);
    1834:	e28d000c 	add	r0, sp, #12
    1838:	e28d1004 	add	r1, sp, #4
    183c:	ebfffde4 	bl	fd4 <swap>
        swap(&y0, &y1);
    1840:	e28d0008 	add	r0, sp, #8
    1844:	e1a0100d 	mov	r1, sp
    1848:	ebfffde1 	bl	fd4 <swap>
    }
    int deltax = x1 - x0;
    184c:	e59d3004 	ldr	r3, [sp, #4]
    1850:	e59d500c 	ldr	r5, [sp, #12]
    1854:	e0659003 	rsb	r9, r5, r3
    int deltay = abs(y1 - y0);
    1858:	e59d2000 	ldr	r2, [sp]
    185c:	e59d6008 	ldr	r6, [sp, #8]
    1860:	e0667002 	rsb	r7, r6, r2
    1864:	e3570000 	cmp	r7, #0
    1868:	b2677000 	rsblt	r7, r7, #0
    int error = -(deltax / 2);
    186c:	e0894fa9 	add	r4, r9, r9, lsr #31
    1870:	e1a040c4 	asr	r4, r4, #1
    1874:	e2644000 	rsb	r4, r4, #0
    int y = y0;
    int y_step;
    if (y0 < y1)
        y_step = 1;
    1878:	e1520006 	cmp	r2, r6
    187c:	d3e0b000 	mvnle	r11, #0
    1880:	c3a0b001 	movgt	r11, #1
    else
        y_step = -1;

    int x;
    for (x = x0; x <= x1; ++x) {
    1884:	e1530005 	cmp	r3, r5
    1888:	ba00000d 	blt	18c4 <draw_triple_line+0x100>
        if (is_steep)
    188c:	e3580000 	cmp	r8, #0
            plot_triple_pixel(y, x, color);
    1890:	11a00006 	movne	r0, r6
    1894:	11a01005 	movne	r1, r5
        else
            plot_triple_pixel(x, y, color);
    1898:	01a00005 	moveq	r0, r5
    189c:	01a01006 	moveq	r1, r6
    18a0:	e1a0200a 	mov	r2, r10
    18a4:	ebffffa1 	bl	1730 <plot_triple_pixel>
        error = error + deltay;
        if (error >= 0) {
    18a8:	e0944007 	adds	r4, r4, r7
            y = y + y_step;
    18ac:	5086600b 	addpl	r6, r6, r11
            error = error - deltax;
    18b0:	50694004 	rsbpl	r4, r9, r4
        y_step = 1;
    else
        y_step = -1;

    int x;
    for (x = x0; x <= x1; ++x) {
    18b4:	e2855001 	add	r5, r5, #1
    18b8:	e59d3004 	ldr	r3, [sp, #4]
    18bc:	e1530005 	cmp	r3, r5
    18c0:	aafffff1 	bge	188c <draw_triple_line+0xc8>
            y = y + y_step;
            error = error - deltax;
        }
    }

}
    18c4:	e28dd014 	add	sp, sp, #20
    18c8:	e8bd8ff0 	pop	{r4, r5, r6, r7, r8, r9, r10, r11, pc}

000018cc <wait_for_vsync>:
    if (inBoundsY(y-1))
        *(short int *)(pixel_buffer_start + ((y-1) << 10) + (x << 1)) = line_color;
}

void wait_for_vsync() {
    *pixel_ctrl_ptr = 1;
    18cc:	e3083280 	movw	r3, #33408	; 0x8280
    18d0:	e3403000 	movt	r3, #0
    18d4:	e5932000 	ldr	r2, [r3]
    18d8:	e3a01001 	mov	r1, #1
    18dc:	e5821000 	str	r1, [r2]
    while ((*(pixel_ctrl_ptr + 3) & 1) == 1);
    18e0:	e5932000 	ldr	r2, [r3]
    18e4:	e592300c 	ldr	r3, [r2, #12]
    18e8:	e3130001 	tst	r3, #1
    18ec:	1afffffc 	bne	18e4 <wait_for_vsync+0x18>
}
    18f0:	e12fff1e 	bx	lr

000018f4 <init_vga>:
#include "address_map_arm.h"

volatile int pixel_buffer_start;
volatile int * pixel_ctrl_ptr = (int *)PIXEL_BUF_CTRL_BASE;

void init_vga() {
    18f4:	e92d4038 	push	{r3, r4, r5, lr}
    /* set front pixel buffer to start of FPGA On-chip memory */
    *(pixel_ctrl_ptr + 1) = 0xC8000000; // first store the address in the
    18f8:	e3084280 	movw	r4, #33408	; 0x8280
    18fc:	e3404000 	movt	r4, #0
    1900:	e5943000 	ldr	r3, [r4]
    1904:	e3a02332 	mov	r2, #-939524096	; 0xc8000000
    1908:	e5832004 	str	r2, [r3, #4]
    // back buffer

    /* now, swap the front/back buffers, to set the front buffer location */
    wait_for_vsync();
    190c:	ebffffee 	bl	18cc <wait_for_vsync>

    /* initialize a pointer to the pixel buffer, used by drawing functions */
    pixel_buffer_start = *pixel_ctrl_ptr;
    1910:	e5943000 	ldr	r3, [r4]
    1914:	e5933000 	ldr	r3, [r3]
    1918:	e3035b1c 	movw	r5, #15132	; 0x3b1c
    191c:	e3405005 	movt	r5, #5
    1920:	e5853000 	str	r3, [r5]
    clear_screen(); // pixel_buffer_start points to the pixel buffer
    1924:	ebfffef5 	bl	1500 <clear_screen>

    /* set back pixel buffer to start of SDRAM memory */
    *(pixel_ctrl_ptr + 1) = 0xC0000000;
    1928:	e5943000 	ldr	r3, [r4]
    192c:	e3a02103 	mov	r2, #-1073741824	; 0xc0000000
    1930:	e5832004 	str	r2, [r3, #4]
    //*(pixel_ctrl_ptr + 1) = 0xC8000000;
    pixel_buffer_start = *(pixel_ctrl_ptr + 1); // we draw on the back buffer
    1934:	e5933004 	ldr	r3, [r3, #4]
    1938:	e5853000 	str	r3, [r5]
    193c:	e8bd8038 	pop	{r3, r4, r5, pc}

00001940 <init_hexagon>:
#include <stdlib.h>

const int rotation_speeds_size = 12;
float rotation_speeds[] = { 1, 1, 1, 2, 2, 3, 1, 1, 1, 2, 2, 3 };

void init_hexagon(Hexagon* hex, int missing_segment, int y, int height, int speed, short int color) {
    1940:	e92d45f0 	push	{r4, r5, r6, r7, r8, r10, lr}
    1944:	e24dd00c 	sub	sp, sp, #12
    1948:	e1a05000 	mov	r5, r0
    194c:	e1a0a002 	mov	r10, r2
    1950:	e1a08003 	mov	r8, r3
    1954:	e59d7028 	ldr	r7, [sp, #40]	; 0x28
    1958:	e1dd62fc 	ldrsh	r6, [sp, #44]	; 0x2c
    hex->missing_segment = missing_segment;
    195c:	e5801090 	str	r1, [r0, #144]	; 0x90
    hex->y = y;
    1960:	e5852094 	str	r2, [r5, #148]	; 0x94
    hex->height = height;
    1964:	e5853098 	str	r3, [r5, #152]	; 0x98
    hex->speed = speed;
    1968:	e580709c 	str	r7, [r0, #156]	; 0x9c
    hex->rotation = 0;
    196c:	e3a03000 	mov	r3, #0
    1970:	e58030a0 	str	r3, [r0, #160]	; 0xa0
    hex->rotation_speed = 0;
    1974:	e58030a4 	str	r3, [r0, #164]	; 0xa4
    hex->color = color;
    1978:	e1c06ab8 	strh	r6, [r0, #168]	; 0xa8
    int i;
    for (i=0; i<6; ++i) {
    197c:	e3a04000 	mov	r4, #0
        init_segment(&hex->segments[i], i, y, height, speed, color);
    1980:	e0840084 	add	r0, r4, r4, lsl #1
    1984:	e58d7000 	str	r7, [sp]
    1988:	e58d6004 	str	r6, [sp, #4]
    198c:	e0850180 	add	r0, r5, r0, lsl #3
    1990:	e1a01004 	mov	r1, r4
    1994:	e1a0200a 	mov	r2, r10
    1998:	e1a03008 	mov	r3, r8
    199c:	ebfffd2e 	bl	e5c <init_segment>
    hex->speed = speed;
    hex->rotation = 0;
    hex->rotation_speed = 0;
    hex->color = color;
    int i;
    for (i=0; i<6; ++i) {
    19a0:	e2844001 	add	r4, r4, #1
    19a4:	e3540006 	cmp	r4, #6
    19a8:	1afffff4 	bne	1980 <init_hexagon+0x40>
        init_segment(&hex->segments[i], i, y, height, speed, color);
    }
}
    19ac:	e28dd00c 	add	sp, sp, #12
    19b0:	e8bd85f0 	pop	{r4, r5, r6, r7, r8, r10, pc}

000019b4 <set_hexagon_speed>:
void decrease_hexagon_speed(Hexagon* hex, int value) {
    set_hexagon_speed(hex, hex->speed - value);
}

void set_hexagon_speed(Hexagon* hex, int value) {
    hex->speed = value;
    19b4:	e580109c 	str	r1, [r0, #156]	; 0x9c
    int i;
    for (i=0; i<6; ++i) {
        //if (i != hex->missing_segment)
            hex->segments[i].speed = value;
    19b8:	e580100c 	str	r1, [r0, #12]
    19bc:	e5801024 	str	r1, [r0, #36]	; 0x24
    19c0:	e580103c 	str	r1, [r0, #60]	; 0x3c
    19c4:	e5801054 	str	r1, [r0, #84]	; 0x54
    19c8:	e580106c 	str	r1, [r0, #108]	; 0x6c
    19cc:	e5801084 	str	r1, [r0, #132]	; 0x84
    19d0:	e12fff1e 	bx	lr

000019d4 <decrease_hexagon_speed>:

void increase_hexagon_speed(Hexagon* hex, int value) {
    set_hexagon_speed(hex, hex->speed + value);
}

void decrease_hexagon_speed(Hexagon* hex, int value) {
    19d4:	e92d4008 	push	{r3, lr}
    set_hexagon_speed(hex, hex->speed - value);
    19d8:	e590309c 	ldr	r3, [r0, #156]	; 0x9c
    19dc:	e0611003 	rsb	r1, r1, r3
    19e0:	ebfffff3 	bl	19b4 <set_hexagon_speed>
    19e4:	e8bd8008 	pop	{r3, pc}

000019e8 <increase_hexagon_speed>:
    }
}

// **************   Hexagon Speed Setting Operations    ************** //

void increase_hexagon_speed(Hexagon* hex, int value) {
    19e8:	e92d4008 	push	{r3, lr}
    set_hexagon_speed(hex, hex->speed + value);
    19ec:	e590309c 	ldr	r3, [r0, #156]	; 0x9c
    19f0:	e0811003 	add	r1, r1, r3
    19f4:	ebffffee 	bl	19b4 <set_hexagon_speed>
    19f8:	e8bd8008 	pop	{r3, pc}

000019fc <set_hexagon_y>:
}

// **************   Hexagon Y Setting Operations    ************** //

void set_hexagon_y(Hexagon* hex, int value) {
    hex->y = value;
    19fc:	e5801094 	str	r1, [r0, #148]	; 0x94
    int i;
    for (i=0; i<6; ++i) {
        //if (i != hex->missing_segment)
            hex->segments[i].y = value;
    1a00:	e5801000 	str	r1, [r0]
    1a04:	e5801018 	str	r1, [r0, #24]
    1a08:	e5801030 	str	r1, [r0, #48]	; 0x30
    1a0c:	e5801048 	str	r1, [r0, #72]	; 0x48
    1a10:	e5801060 	str	r1, [r0, #96]	; 0x60
    1a14:	e5801078 	str	r1, [r0, #120]	; 0x78
    1a18:	e12fff1e 	bx	lr

00001a1c <increase_hexagon_y>:
    }
}

void increase_hexagon_y(Hexagon* hex, int value) {
    1a1c:	e92d4008 	push	{r3, lr}
    set_hexagon_y(hex, hex->y + value);
    1a20:	e5903094 	ldr	r3, [r0, #148]	; 0x94
    1a24:	e0811003 	add	r1, r1, r3
    1a28:	ebfffff3 	bl	19fc <set_hexagon_y>
    1a2c:	e8bd8008 	pop	{r3, pc}

00001a30 <decrease_hexagon_y>:
}

void decrease_hexagon_y(Hexagon* hex, int value) {
    1a30:	e92d4008 	push	{r3, lr}
    set_hexagon_y(hex, hex->y - value);
    1a34:	e5903094 	ldr	r3, [r0, #148]	; 0x94
    1a38:	e0611003 	rsb	r1, r1, r3
    1a3c:	ebffffee 	bl	19fc <set_hexagon_y>
    1a40:	e8bd8008 	pop	{r3, pc}

00001a44 <set_hexagon_height>:
}

// **************   Hexagon Height Setting Operations    ************** //

void set_hexagon_height(Hexagon* hex, int value) {
    hex->height = value;
    1a44:	e5801098 	str	r1, [r0, #152]	; 0x98
    int i;
    for (i=0; i<6; ++i) {
        //if (i != hex->missing_segment)
            hex->segments[i].height = value;
    1a48:	e5801004 	str	r1, [r0, #4]
    1a4c:	e580101c 	str	r1, [r0, #28]
    1a50:	e5801034 	str	r1, [r0, #52]	; 0x34
    1a54:	e580104c 	str	r1, [r0, #76]	; 0x4c
    1a58:	e5801064 	str	r1, [r0, #100]	; 0x64
    1a5c:	e580107c 	str	r1, [r0, #124]	; 0x7c
    1a60:	e12fff1e 	bx	lr

00001a64 <increase_hexagon_height>:
    }
}

void increase_hexagon_height(Hexagon* hex, int value) {
    1a64:	e92d4008 	push	{r3, lr}
    set_hexagon_height(hex, hex->height + value);
    1a68:	e5903098 	ldr	r3, [r0, #152]	; 0x98
    1a6c:	e0811003 	add	r1, r1, r3
    1a70:	ebfffff3 	bl	1a44 <set_hexagon_height>
    1a74:	e8bd8008 	pop	{r3, pc}

00001a78 <decrease_hexagon_height>:
}

void decrease_hexagon_height(Hexagon* hex, int value) {
    1a78:	e92d4008 	push	{r3, lr}
    set_hexagon_height(hex, hex->height - value);
    1a7c:	e5903098 	ldr	r3, [r0, #152]	; 0x98
    1a80:	e0611003 	rsb	r1, r1, r3
    1a84:	ebffffee 	bl	1a44 <set_hexagon_height>
    1a88:	e8bd8008 	pop	{r3, pc}

00001a8c <set_hexagon_rotation_speed>:
}

// **************   Hexagon Rotation Setting Operations    ************** //

void set_hexagon_rotation_speed(Hexagon* hex, float value) {
    if (!SETTINGS.HEXAGON_ROTATE || SETTINGS.CONTROL_SCHEME == DISCRETE)
    1a8c:	e3033b20 	movw	r3, #15136	; 0x3b20
    1a90:	e3403005 	movt	r3, #5
    1a94:	e5d3300c 	ldrb	r3, [r3, #12]
    1a98:	e3530000 	cmp	r3, #0
        value = 0;
    1a9c:	03a01000 	moveq	r1, #0
}

// **************   Hexagon Rotation Setting Operations    ************** //

void set_hexagon_rotation_speed(Hexagon* hex, float value) {
    if (!SETTINGS.HEXAGON_ROTATE || SETTINGS.CONTROL_SCHEME == DISCRETE)
    1aa0:	0a000004 	beq	1ab8 <set_hexagon_rotation_speed+0x2c>
    1aa4:	e3033b20 	movw	r3, #15136	; 0x3b20
    1aa8:	e3403005 	movt	r3, #5
    1aac:	e5d33016 	ldrb	r3, [r3, #22]
    1ab0:	e3530000 	cmp	r3, #0
        value = 0;
    1ab4:	03a01000 	moveq	r1, #0
    hex->rotation_speed = value;
    1ab8:	e58010a4 	str	r1, [r0, #164]	; 0xa4
    1abc:	e12fff1e 	bx	lr

00001ac0 <set_hexagon_rotation>:
    //for (i=0; i<6; ++i) {
    //    hex->segments[i].rotation_speed = value;
    //}
}

void set_hexagon_rotation(Hexagon* hex, float value) {
    1ac0:	e92d4038 	push	{r3, r4, r5, lr}
    1ac4:	e1a05000 	mov	r5, r0
    1ac8:	e1a04001 	mov	r4, r1
    if (!SETTINGS.HEXAGON_ROTATE || SETTINGS.CONTROL_SCHEME == DISCRETE)
    1acc:	e3033b20 	movw	r3, #15136	; 0x3b20
    1ad0:	e3403005 	movt	r3, #5
    1ad4:	e5d3300c 	ldrb	r3, [r3, #12]
    1ad8:	e3530000 	cmp	r3, #0
    1adc:	03a04000 	moveq	r4, #0
    1ae0:	0a00001b 	beq	1b54 <set_hexagon_rotation+0x94>
    1ae4:	e3033b20 	movw	r3, #15136	; 0x3b20
    1ae8:	e3403005 	movt	r3, #5
    1aec:	e5d33016 	ldrb	r3, [r3, #22]
    1af0:	e3530000 	cmp	r3, #0
    1af4:	03a04000 	moveq	r4, #0
    1af8:	0a000015 	beq	1b54 <set_hexagon_rotation+0x94>
        value = 0;
    if (value >= 360)
    1afc:	e1a00004 	mov	r0, r4
    1b00:	e3a01000 	mov	r1, #0
    1b04:	e34413b4 	movt	r1, #17332	; 0x43b4
    1b08:	eb00139d 	bl	6984 <__aeabi_fcmpge>
    1b0c:	e3500000 	cmp	r0, #0
    1b10:	0a000004 	beq	1b28 <set_hexagon_rotation+0x68>
        value -= 360;
    1b14:	e1a00004 	mov	r0, r4
    1b18:	e3a01000 	mov	r1, #0
    1b1c:	e34413b4 	movt	r1, #17332	; 0x43b4
    1b20:	eb0011f7 	bl	6304 <__aeabi_fsub>
    1b24:	e1a04000 	mov	r4, r0
    if (value < 0)
    1b28:	e1a00004 	mov	r0, r4
    1b2c:	e3a01000 	mov	r1, #0
    1b30:	eb001387 	bl	6954 <__aeabi_fcmplt>
    1b34:	e3500000 	cmp	r0, #0
    1b38:	0a000005 	beq	1b54 <set_hexagon_rotation+0x94>
        value += 360;
    1b3c:	e1a00004 	mov	r0, r4
    1b40:	e3a01000 	mov	r1, #0
    1b44:	e34413b4 	movt	r1, #17332	; 0x43b4
    1b48:	eb0011ee 	bl	6308 <__addsf3>
    1b4c:	e1a04000 	mov	r4, r0
    1b50:	eaffffff 	b	1b54 <set_hexagon_rotation+0x94>
    hex->rotation = value;
    1b54:	e58540a0 	str	r4, [r5, #160]	; 0xa0
    int i;
    for (i=0; i<6; ++i) {
        hex->segments[i].rotation = value;
    1b58:	e5854010 	str	r4, [r5, #16]
    1b5c:	e5854028 	str	r4, [r5, #40]	; 0x28
    1b60:	e5854040 	str	r4, [r5, #64]	; 0x40
    1b64:	e5854058 	str	r4, [r5, #88]	; 0x58
    1b68:	e5854070 	str	r4, [r5, #112]	; 0x70
    1b6c:	e5854088 	str	r4, [r5, #136]	; 0x88
    1b70:	e8bd8038 	pop	{r3, r4, r5, pc}

00001b74 <increase_hexagon_rotation>:
    }
}

void increase_hexagon_rotation(Hexagon* hex, float value) {
    1b74:	e92d4010 	push	{r4, lr}
    1b78:	e1a04000 	mov	r4, r0
    set_hexagon_rotation(hex, hex->rotation + value);
    1b7c:	e1a00001 	mov	r0, r1
    1b80:	e59410a0 	ldr	r1, [r4, #160]	; 0xa0
    1b84:	eb0011df 	bl	6308 <__addsf3>
    1b88:	e1a01000 	mov	r1, r0
    1b8c:	e1a00004 	mov	r0, r4
    1b90:	ebffffca 	bl	1ac0 <set_hexagon_rotation>
    1b94:	e8bd8010 	pop	{r4, pc}

00001b98 <decrease_hexagon_rotation>:
}

void decrease_hexagon_rotation(Hexagon* hex, float value) {
    1b98:	e92d4010 	push	{r4, lr}
    1b9c:	e1a04000 	mov	r4, r0
    set_hexagon_rotation(hex, hex->rotation - value);
    1ba0:	e59000a0 	ldr	r0, [r0, #160]	; 0xa0
    1ba4:	eb0011d6 	bl	6304 <__aeabi_fsub>
    1ba8:	e1a01000 	mov	r1, r0
    1bac:	e1a00004 	mov	r0, r4
    1bb0:	ebffffc2 	bl	1ac0 <set_hexagon_rotation>
    1bb4:	e8bd8010 	pop	{r4, pc}

00001bb8 <set_hexagon_color>:
}

// **************   Hexagon Color Setting Operations    ************** //

void set_hexagon_color(Hexagon* hex, short int color) {
    hex->color = color;
    1bb8:	e1c01ab8 	strh	r1, [r0, #168]	; 0xa8
    int i;
    for (i=0; i<6; ++i) {
        //if (i != hex->missing_segment)
            hex->segments[i].color = color;
    1bbc:	e1c011b4 	strh	r1, [r0, #20]
    1bc0:	e1c012bc 	strh	r1, [r0, #44]	; 0x2c
    1bc4:	e1c014b4 	strh	r1, [r0, #68]	; 0x44
    1bc8:	e1c015bc 	strh	r1, [r0, #92]	; 0x5c
    1bcc:	e1c017b4 	strh	r1, [r0, #116]	; 0x74
    1bd0:	e1c018bc 	strh	r1, [r0, #140]	; 0x8c
    1bd4:	e12fff1e 	bx	lr

00001bd8 <update_hexagon>:
    }
}

// **************   Hexagon Update Operations    ************** //

void update_hexagon(Hexagon* hex) {
    1bd8:	e92d4070 	push	{r4, r5, r6, lr}
    1bdc:	e1a04000 	mov	r4, r0
    //if ((hex->y - hex->height) <= ORIGIN_PADDING) {
    if ((hex->y - hex->height) <= 0) {
    1be0:	e5902094 	ldr	r2, [r0, #148]	; 0x94
    1be4:	e5903098 	ldr	r3, [r0, #152]	; 0x98
    1be8:	e0633002 	rsb	r3, r3, r2
    1bec:	e3530000 	cmp	r3, #0
    1bf0:	ca000030 	bgt	1cb8 <update_hexagon+0xe0>
        hex->missing_segment = rand() % 6;
    1bf4:	eb001428 	bl	6c9c <rand>
    1bf8:	e30a3aab 	movw	r3, #43691	; 0xaaab
    1bfc:	e3423aaa 	movt	r3, #10922	; 0x2aaa
    1c00:	e0c31093 	smull	r1, r3, r3, r0
    1c04:	e0433fc0 	sub	r3, r3, r0, asr #31
    1c08:	e0833083 	add	r3, r3, r3, lsl #1
    1c0c:	e0400083 	sub	r0, r0, r3, lsl #1
    1c10:	e5840090 	str	r0, [r4, #144]	; 0x90
        set_hexagon_y(hex, ORIGIN_Y);
    1c14:	e1a00004 	mov	r0, r4
    1c18:	e3a01077 	mov	r1, #119	; 0x77
    1c1c:	ebffff76 	bl	19fc <set_hexagon_y>
        //increase_hexagon_speed(hex, 1);
        set_hexagon_color(hex, rand() % 0xFFFF);
    1c20:	eb00141d 	bl	6c9c <rand>
    1c24:	e3083001 	movw	r3, #32769	; 0x8001
    1c28:	e3483000 	movt	r3, #32768	; 0x8000
    1c2c:	e0c12093 	smull	r2, r1, r3, r0
    1c30:	e0811000 	add	r1, r1, r0
    1c34:	e1a02fc0 	asr	r2, r0, #31
    1c38:	e06217c1 	rsb	r1, r2, r1, asr #15
    1c3c:	e0801001 	add	r1, r0, r1
    1c40:	e1a00004 	mov	r0, r4
    1c44:	e6bf1071 	sxth	r1, r1
    1c48:	ebffffda 	bl	1bb8 <set_hexagon_color>
        set_hexagon_rotation(hex, 0);
    1c4c:	e1a00004 	mov	r0, r4
    1c50:	e3a01000 	mov	r1, #0
    1c54:	ebffff99 	bl	1ac0 <set_hexagon_rotation>
        int dir = (rand() % 2 == 0) ? -1 : 1;
    1c58:	eb00140f 	bl	6c9c <rand>
    1c5c:	e2000001 	and	r0, r0, #1
    1c60:	e3500000 	cmp	r0, #0
    1c64:	13a06001 	movne	r6, #1
    1c68:	03e06000 	mvneq	r6, #0
        set_hexagon_rotation_speed(hex, dir * rotation_speeds[rand() % rotation_speeds_size]);
    1c6c:	eb00140a 	bl	6c9c <rand>
    1c70:	e1a05000 	mov	r5, r0
    1c74:	e1a00006 	mov	r0, r6
    1c78:	eb001213 	bl	64cc <__aeabi_i2f>
    1c7c:	e3083284 	movw	r3, #33412	; 0x8284
    1c80:	e3403000 	movt	r3, #0
    1c84:	e30a2aab 	movw	r2, #43691	; 0xaaab
    1c88:	e3422aaa 	movt	r2, #10922	; 0x2aaa
    1c8c:	e0c21592 	smull	r1, r2, r2, r5
    1c90:	e1a01fc5 	asr	r1, r5, #31
    1c94:	e06120c2 	rsb	r2, r1, r2, asr #1
    1c98:	e0822082 	add	r2, r2, r2, lsl #1
    1c9c:	e0455102 	sub	r5, r5, r2, lsl #2
    1ca0:	e7931105 	ldr	r1, [r3, r5, lsl #2]
    1ca4:	eb00123f 	bl	65a8 <__aeabi_fmul>
    1ca8:	e1a01000 	mov	r1, r0
    1cac:	e1a00004 	mov	r0, r4
    1cb0:	ebffff75 	bl	1a8c <set_hexagon_rotation_speed>
    1cb4:	e8bd8070 	pop	{r4, r5, r6, pc}
    } else {
        //if ((hex->y - hex->height) <= 1)
        //    hex->missing_segment = rand() % 6;
        decrease_hexagon_y(hex, hex->speed);
    1cb8:	e594109c 	ldr	r1, [r4, #156]	; 0x9c
    1cbc:	ebffff5b 	bl	1a30 <decrease_hexagon_y>
        increase_hexagon_rotation(hex, hex->rotation_speed);
    1cc0:	e1a00004 	mov	r0, r4
    1cc4:	e59410a4 	ldr	r1, [r4, #164]	; 0xa4
    1cc8:	ebffffa9 	bl	1b74 <increase_hexagon_rotation>
    1ccc:	e8bd8070 	pop	{r4, r5, r6, pc}

00001cd0 <draw_hexagon>:
    }
}

// **************   Hexagon Drawing Operations    ************** //

void draw_hexagon(Hexagon hex) {
    1cd0:	e24dd010 	sub	sp, sp, #16
    1cd4:	e92d4010 	push	{r4, lr}
    1cd8:	e24dd008 	sub	sp, sp, #8
    1cdc:	e28dc00c 	add	r12, sp, #12
    1ce0:	e98c000f 	stmib	r12, {r0, r1, r2, r3}
    int i;
    for (i = 0; i < 6; ++i) {
    1ce4:	e3a04000 	mov	r4, #0
        if (i != hex.missing_segment)
    1ce8:	e59d30a0 	ldr	r3, [sp, #160]	; 0xa0
    1cec:	e1530004 	cmp	r3, r4
    1cf0:	0a000007 	beq	1d14 <draw_hexagon+0x44>
            draw_segment(hex.segments[i]);
    1cf4:	e0843084 	add	r3, r4, r4, lsl #1
    1cf8:	e28d2010 	add	r2, sp, #16
    1cfc:	e0823183 	add	r3, r2, r3, lsl #3
    1d00:	e2832010 	add	r2, r3, #16
    1d04:	e8920003 	ldm	r2, {r0, r1}
    1d08:	e88d0003 	stm	sp, {r0, r1}
    1d0c:	e893000f 	ldm	r3, {r0, r1, r2, r3}
    1d10:	ebfffc5b 	bl	e84 <draw_segment>

// **************   Hexagon Drawing Operations    ************** //

void draw_hexagon(Hexagon hex) {
    int i;
    for (i = 0; i < 6; ++i) {
    1d14:	e2844001 	add	r4, r4, #1
    1d18:	e3540006 	cmp	r4, #6
    1d1c:	1afffff1 	bne	1ce8 <draw_hexagon+0x18>
        if (i != hex.missing_segment)
            draw_segment(hex.segments[i]);
    }
    1d20:	e28dd008 	add	sp, sp, #8
    1d24:	e8bd4010 	pop	{r4, lr}
    1d28:	e28dd010 	add	sp, sp, #16
    1d2c:	e12fff1e 	bx	lr

00001d30 <update_settings>:
    const int CONTROL_SCHEME =              0b1000;
    const int TIME_MODE =                   0b10000;
    const int HEXAGON_ROTATE =              0b100000;
    const int INPUT_TYPE =                  0b1000000;

    if (!SETTINGS.DEBUG)
    1d30:	e3033b20 	movw	r3, #15136	; 0x3b20
    1d34:	e3403005 	movt	r3, #5
    1d38:	e5d33000 	ldrb	r3, [r3]
    1d3c:	e3530000 	cmp	r3, #0
    1d40:	012fff1e 	bxeq	lr
        return;

    volatile int * SW = (int *) SW_BASE;

    SETTINGS.HIT_DETECT = ((*SW) & HIT_DETECT) == 0;
    1d44:	e3a02000 	mov	r2, #0
    1d48:	e34f2f20 	movt	r2, #65312	; 0xff20
    1d4c:	e5921040 	ldr	r1, [r2, #64]	; 0x40
    1d50:	e3033b20 	movw	r3, #15136	; 0x3b20
    1d54:	e3403005 	movt	r3, #5
    1d58:	e2211001 	eor	r1, r1, #1
    1d5c:	e2011001 	and	r1, r1, #1
    1d60:	e5c31001 	strb	r1, [r3, #1]
    SETTINGS.SCREEN_ROTATE = ((*SW) & SCREEN_ROTATE) != 0;
    1d64:	e5921040 	ldr	r1, [r2, #64]	; 0x40
    1d68:	e7e010d1 	ubfx	r1, r1, #1, #1
    1d6c:	e5c31004 	strb	r1, [r3, #4]
    SETTINGS.SCREEN_ROTATION_DIRECTION = (*SW & SCREEN_ROTATE_DIRECTION) ? COUNTER_CLOCKWISE : CLOCKWISE;
    1d70:	e5921040 	ldr	r1, [r2, #64]	; 0x40
    1d74:	e7e01151 	ubfx	r1, r1, #2, #1
    1d78:	e5c31005 	strb	r1, [r3, #5]
    SETTINGS.CONTROL_SCHEME = (*SW & CONTROL_SCHEME) ? CONTINUOUS : DISCRETE;
    1d7c:	e5921040 	ldr	r1, [r2, #64]	; 0x40
    1d80:	e7e011d1 	ubfx	r1, r1, #3, #1
    1d84:	e5c31016 	strb	r1, [r3, #22]
    SETTINGS.TIME_MODE = (*SW & TIME_MODE) ? MILLISECONDS : SECONDS;
    1d88:	e5921040 	ldr	r1, [r2, #64]	; 0x40
    1d8c:	e7e01251 	ubfx	r1, r1, #4, #1
    1d90:	e5c31003 	strb	r1, [r3, #3]
    SETTINGS.HEXAGON_ROTATE = (*SW & HEXAGON_ROTATE) != 0;
    1d94:	e5921040 	ldr	r1, [r2, #64]	; 0x40
    1d98:	e7e012d1 	ubfx	r1, r1, #5, #1
    1d9c:	e5c3100c 	strb	r1, [r3, #12]
    SETTINGS.INPUT_TYPE = (*SW & INPUT_TYPE) ? KEYBOARD : KEYS;
    1da0:	e5922040 	ldr	r2, [r2, #64]	; 0x40
    1da4:	e7e02352 	ubfx	r2, r2, #6, #1
    1da8:	e5c32015 	strb	r2, [r3, #21]
    1dac:	e12fff1e 	bx	lr

00001db0 <init_game_state>:
}


void init_game_state() {
    GAME_STATE.RUN = true;
    1db0:	e3033b20 	movw	r3, #15136	; 0x3b20
    1db4:	e3403005 	movt	r3, #5
    1db8:	e3a01001 	mov	r1, #1
    1dbc:	e5c3101c 	strb	r1, [r3, #28]
    GAME_STATE.GAME_OVER = false;
    1dc0:	e3a02000 	mov	r2, #0
    1dc4:	e5c3201d 	strb	r2, [r3, #29]

    GAME_STATE.GAME_TIME = 0;
    1dc8:	e5832020 	str	r2, [r3, #32]
    GAME_STATE.SCREEN_ROTATION_ANGLE = 0;
    1dcc:	e3a00000 	mov	r0, #0
    1dd0:	e5830024 	str	r0, [r3, #36]	; 0x24

    GAME_STATE.MODE = TITLE;
    1dd4:	e5c32028 	strb	r2, [r3, #40]	; 0x28
    INIT_GAME_REQUEST = true;
    1dd8:	e5c3102c 	strb	r1, [r3, #44]	; 0x2c
    1ddc:	e12fff1e 	bx	lr

00001de0 <update_game_state>:
}

void update_game_state() {
    1de0:	e12fff1e 	bx	lr

00001de4 <apply_difficulty>:

}

void apply_difficulty(int index) {
    1de4:	e92d0070 	push	{r4, r5, r6}
    Settings difficulty = DIFFICULTIES[index];
    1de8:	e3033b20 	movw	r3, #15136	; 0x3b20
    1dec:	e3403005 	movt	r3, #5
    1df0:	e2831030 	add	r1, r3, #48	; 0x30
    1df4:	e0600180 	rsb	r0, r0, r0, lsl #3
    1df8:	e1a00100 	lsl	r0, r0, #2
    1dfc:	e0812000 	add	r2, r1, r0
    1e00:	e7d16000 	ldrb	r6, [r1, r0]
    1e04:	e5d25001 	ldrb	r5, [r2, #1]
    1e08:	e5d24004 	ldrb	r4, [r2, #4]
    1e0c:	e5d2c00c 	ldrb	r12, [r2, #12]
    1e10:	e5920010 	ldr	r0, [r2, #16]
    1e14:	e5d21014 	ldrb	r1, [r2, #20]
    SETTINGS.DIFFICULTY = difficulty.DIFFICULTY;
    1e18:	e5d22002 	ldrb	r2, [r2, #2]
    1e1c:	e5c32002 	strb	r2, [r3, #2]

    SETTINGS.DEBUG = difficulty.DEBUG;
    1e20:	e5c36000 	strb	r6, [r3]
    SETTINGS.HIT_DETECT = difficulty.HIT_DETECT;
    1e24:	e5c35001 	strb	r5, [r3, #1]

    SETTINGS.SCREEN_ROTATE = difficulty.SCREEN_ROTATE;
    1e28:	e5c34004 	strb	r4, [r3, #4]
    SETTINGS.HEXAGON_ROTATE = difficulty.HEXAGON_ROTATE;
    1e2c:	e5c3c00c 	strb	r12, [r3, #12]
    SETTINGS.HEXAGON_SPEED = difficulty.HEXAGON_SPEED;
    1e30:	e5830010 	str	r0, [r3, #16]

    SETTINGS.BACKGROUND_UPDATE = difficulty.BACKGROUND_UPDATE;
    1e34:	e5c31014 	strb	r1, [r3, #20]
}
    1e38:	e8bd0070 	pop	{r4, r5, r6}
    1e3c:	e12fff1e 	bx	lr

00001e40 <init_settings>:
    OPTIONS_INDEX = 0;

    SCREEN_ROTATION_CHANGE_TIMER = 1000;
}

void init_settings() {
    1e40:	e92d4008 	push	{r3, lr}
    // ******* DEFAULT SETTINGS ******** //
    SETTINGS.DIFFICULTY = DEBUG;
    1e44:	e3033b20 	movw	r3, #15136	; 0x3b20
    1e48:	e3403005 	movt	r3, #5
    1e4c:	e3a00000 	mov	r0, #0
    1e50:	e5c30002 	strb	r0, [r3, #2]
    SETTINGS.DEBUG = true;
    1e54:	e3a02001 	mov	r2, #1
    1e58:	e5c32000 	strb	r2, [r3]
    SETTINGS.HIT_DETECT = false;
    1e5c:	e5c30001 	strb	r0, [r3, #1]

    SETTINGS.TIME_MODE = SECONDS;
    1e60:	e5c30003 	strb	r0, [r3, #3]

    SETTINGS.SCREEN_ROTATE = true;
    1e64:	e5c32004 	strb	r2, [r3, #4]
    SETTINGS.SCREEN_ROTATION_DIRECTION = CLOCKWISE;
    1e68:	e5c30005 	strb	r0, [r3, #5]
    SETTINGS.SCREEN_ROTATION_SPEED = 5;
    1e6c:	e3a01000 	mov	r1, #0
    1e70:	e34410a0 	movt	r1, #16544	; 0x40a0
    1e74:	e5831008 	str	r1, [r3, #8]

    SETTINGS.BACKGROUND_UPDATE = false;
    1e78:	e5c30014 	strb	r0, [r3, #20]

    SETTINGS.HEXAGON_ROTATE = true;
    1e7c:	e5c3200c 	strb	r2, [r3, #12]
    SETTINGS.HEXAGON_SPEED = 2;
    1e80:	e3a0e002 	mov	lr, #2
    1e84:	e583e010 	str	lr, [r3, #16]

    SETTINGS.INPUT_TYPE = KEYS;
    1e88:	e5c30015 	strb	r0, [r3, #21]
    SETTINGS.CONTROL_SCHEME = CONTINUOUS;
    1e8c:	e5c32016 	strb	r2, [r3, #22]
    SETTINGS.DEFAULT_PLAYER_SPEED = 25;
    1e90:	e3a0c000 	mov	r12, #0
    1e94:	e344c1c8 	movt	r12, #16840	; 0x41c8
    1e98:	e583c018 	str	r12, [r3, #24]

    // ******* DEBUG SETTINGS ******** //

    Settings* debug = &DIFFICULTIES[0];
    debug->DIFFICULTY = DEBUG;
    1e9c:	e5c30032 	strb	r0, [r3, #50]	; 0x32
    debug->DEBUG = true;
    1ea0:	e5c32030 	strb	r2, [r3, #48]	; 0x30
    debug->HIT_DETECT = false;
    1ea4:	e5c30031 	strb	r0, [r3, #49]	; 0x31

    debug->TIME_MODE = MILLISECONDS;
    1ea8:	e5c32033 	strb	r2, [r3, #51]	; 0x33

    debug->SCREEN_ROTATE = false;
    1eac:	e5c30034 	strb	r0, [r3, #52]	; 0x34
    debug->SCREEN_ROTATION_DIRECTION = CLOCKWISE;
    1eb0:	e5c30035 	strb	r0, [r3, #53]	; 0x35
    debug->SCREEN_ROTATION_SPEED = 5;
    1eb4:	e5831038 	str	r1, [r3, #56]	; 0x38

    debug->HEXAGON_ROTATE = false;
    1eb8:	e5c3003c 	strb	r0, [r3, #60]	; 0x3c
    debug->HEXAGON_SPEED = 2;
    1ebc:	e583e040 	str	lr, [r3, #64]	; 0x40

    debug->BACKGROUND_UPDATE = false;
    1ec0:	e5c30044 	strb	r0, [r3, #68]	; 0x44

    debug->INPUT_TYPE = KEYBOARD;
    1ec4:	e5c32045 	strb	r2, [r3, #69]	; 0x45
    debug->CONTROL_SCHEME = CONTINUOUS;
    1ec8:	e5c32046 	strb	r2, [r3, #70]	; 0x46
    debug->DEFAULT_PLAYER_SPEED = 15;
    1ecc:	e3a0c000 	mov	r12, #0
    1ed0:	e344c170 	movt	r12, #16752	; 0x4170
    1ed4:	e583c048 	str	r12, [r3, #72]	; 0x48

    // ******* EASY SETTINGS ******** //

    Settings* easy = &DIFFICULTIES[1];
    easy->DIFFICULTY = EASY;
    1ed8:	e5c3204e 	strb	r2, [r3, #78]	; 0x4e
    easy->DEBUG = false;
    1edc:	e5c3004c 	strb	r0, [r3, #76]	; 0x4c
    easy->HIT_DETECT = true;
    1ee0:	e5c3204d 	strb	r2, [r3, #77]	; 0x4d

    easy->TIME_MODE = MILLISECONDS;
    1ee4:	e5c3204f 	strb	r2, [r3, #79]	; 0x4f

    easy->SCREEN_ROTATE = false;
    1ee8:	e5c30050 	strb	r0, [r3, #80]	; 0x50
    easy->SCREEN_ROTATION_DIRECTION = CLOCKWISE;
    1eec:	e5c30051 	strb	r0, [r3, #81]	; 0x51
    easy->SCREEN_ROTATION_SPEED = 5;
    1ef0:	e5831054 	str	r1, [r3, #84]	; 0x54

    easy->HEXAGON_ROTATE = false;
    1ef4:	e5c30058 	strb	r0, [r3, #88]	; 0x58
    easy->HEXAGON_SPEED = 1;
    1ef8:	e583205c 	str	r2, [r3, #92]	; 0x5c

    easy->BACKGROUND_UPDATE = false;
    1efc:	e5c30060 	strb	r0, [r3, #96]	; 0x60

    easy->INPUT_TYPE = KEYBOARD;
    1f00:	e5c32061 	strb	r2, [r3, #97]	; 0x61
    easy->CONTROL_SCHEME = CONTINUOUS;
    1f04:	e5c32062 	strb	r2, [r3, #98]	; 0x62
    easy->DEFAULT_PLAYER_SPEED = 15;
    1f08:	e583c064 	str	r12, [r3, #100]	; 0x64

    // ******* NORMAL SETTINGS ******** //

    Settings* normal = &DIFFICULTIES[2];
    normal->DIFFICULTY = NORMAL;
    1f0c:	e5c3e06a 	strb	lr, [r3, #106]	; 0x6a
    normal->DEBUG = false;
    1f10:	e5c30068 	strb	r0, [r3, #104]	; 0x68
    normal->HIT_DETECT = true;
    1f14:	e5c32069 	strb	r2, [r3, #105]	; 0x69

    normal->TIME_MODE = MILLISECONDS;
    1f18:	e5c3206b 	strb	r2, [r3, #107]	; 0x6b

    normal->SCREEN_ROTATE = false;
    1f1c:	e5c3006c 	strb	r0, [r3, #108]	; 0x6c
    normal->SCREEN_ROTATION_DIRECTION = CLOCKWISE;
    1f20:	e5c3006d 	strb	r0, [r3, #109]	; 0x6d
    normal->SCREEN_ROTATION_SPEED = 5;
    1f24:	e5831070 	str	r1, [r3, #112]	; 0x70

    normal->HEXAGON_ROTATE = true;
    1f28:	e5c32074 	strb	r2, [r3, #116]	; 0x74
    normal->HEXAGON_SPEED = 2;
    1f2c:	e583e078 	str	lr, [r3, #120]	; 0x78

    normal->BACKGROUND_UPDATE = false;
    1f30:	e5c3007c 	strb	r0, [r3, #124]	; 0x7c

    normal->INPUT_TYPE = KEYBOARD;
    1f34:	e5c3207d 	strb	r2, [r3, #125]	; 0x7d
    normal->CONTROL_SCHEME = CONTINUOUS;
    1f38:	e5c3207e 	strb	r2, [r3, #126]	; 0x7e
    normal->DEFAULT_PLAYER_SPEED = 15;
    1f3c:	e583c080 	str	r12, [r3, #128]	; 0x80

    // ******* HARD SETTINGS ******** //

    Settings* hard = &DIFFICULTIES[3];
    hard->DIFFICULTY = HARD;
    1f40:	e3a0e003 	mov	lr, #3
    1f44:	e5c3e086 	strb	lr, [r3, #134]	; 0x86
    hard->DEBUG = false;
    1f48:	e5c30084 	strb	r0, [r3, #132]	; 0x84
    hard->HIT_DETECT = true;
    1f4c:	e5c32085 	strb	r2, [r3, #133]	; 0x85

    hard->TIME_MODE = MILLISECONDS;
    1f50:	e5c32087 	strb	r2, [r3, #135]	; 0x87

    hard->SCREEN_ROTATE = true;
    1f54:	e5c32088 	strb	r2, [r3, #136]	; 0x88
    hard->SCREEN_ROTATION_DIRECTION = CLOCKWISE;
    1f58:	e5c30089 	strb	r0, [r3, #137]	; 0x89
    hard->SCREEN_ROTATION_SPEED = 5;
    1f5c:	e583108c 	str	r1, [r3, #140]	; 0x8c

    hard->HEXAGON_ROTATE = true;
    1f60:	e5c32090 	strb	r2, [r3, #144]	; 0x90
    hard->HEXAGON_SPEED = 3;
    1f64:	e583e094 	str	lr, [r3, #148]	; 0x94

    hard->BACKGROUND_UPDATE = false;
    1f68:	e5c30098 	strb	r0, [r3, #152]	; 0x98

    hard->INPUT_TYPE = KEYBOARD;
    1f6c:	e5c32099 	strb	r2, [r3, #153]	; 0x99
    hard->CONTROL_SCHEME = CONTINUOUS;
    1f70:	e5c3209a 	strb	r2, [r3, #154]	; 0x9a
    hard->DEFAULT_PLAYER_SPEED = 15;
    1f74:	e583c09c 	str	r12, [r3, #156]	; 0x9c

    apply_difficulty(0);
    1f78:	ebffff99 	bl	1de4 <apply_difficulty>
    1f7c:	e8bd8008 	pop	{r3, pc}

00001f80 <init_globals>:
int OPTIONS_SIZE;
volatile int OPTIONS_INDEX;

volatile unsigned int SCREEN_ROTATION_CHANGE_TIMER;

void init_globals() {
    1f80:	e92d4008 	push	{r3, lr}
    init_settings();
    1f84:	ebffffad 	bl	1e40 <init_settings>
    init_game_state();
    1f88:	ebffff88 	bl	1db0 <init_game_state>

    BACKGROUND_COLORS[0] = 0x0;
    1f8c:	e3033b20 	movw	r3, #15136	; 0x3b20
    1f90:	e3403005 	movt	r3, #5
    1f94:	e3a02000 	mov	r2, #0
    1f98:	e1c32ab0 	strh	r2, [r3, #160]	; 0xa0
    BACKGROUND_COLORS[1] = 0xFFFF;
    1f9c:	e3e00000 	mvn	r0, #0
    1fa0:	e1c30ab2 	strh	r0, [r3, #162]	; 0xa2

    TITLE_SIZE = 2;
    1fa4:	e3a00002 	mov	r0, #2
    1fa8:	e58300a4 	str	r0, [r3, #164]	; 0xa4
    TITLE_INDEX = 0;
    1fac:	e58320a8 	str	r2, [r3, #168]	; 0xa8

    OPTIONS_UPDATE = false;
    1fb0:	e5c320ac 	strb	r2, [r3, #172]	; 0xac
    OPTIONS_SIZE = 4;
    1fb4:	e3a01004 	mov	r1, #4
    1fb8:	e58310b0 	str	r1, [r3, #176]	; 0xb0
    OPTIONS_INDEX = 0;
    1fbc:	e58320b4 	str	r2, [r3, #180]	; 0xb4

    SCREEN_ROTATION_CHANGE_TIMER = 1000;
    1fc0:	e3a02ffa 	mov	r2, #1000	; 0x3e8
    1fc4:	e58320b8 	str	r2, [r3, #184]	; 0xb8
    1fc8:	e8bd8008 	pop	{r3, pc}

00001fcc <chooseNextOption>:
    SETTINGS.HEXAGON_SPEED = difficulty.HEXAGON_SPEED;

    SETTINGS.BACKGROUND_UPDATE = difficulty.BACKGROUND_UPDATE;
}

void chooseNextOption() {
    1fcc:	e92d4010 	push	{r4, lr}
    OPTIONS_INDEX = (OPTIONS_INDEX + 1) % OPTIONS_SIZE;
    1fd0:	e3034b20 	movw	r4, #15136	; 0x3b20
    1fd4:	e3404005 	movt	r4, #5
    1fd8:	e59400b4 	ldr	r0, [r4, #180]	; 0xb4
    1fdc:	e2800001 	add	r0, r0, #1
    1fe0:	e59410b0 	ldr	r1, [r4, #176]	; 0xb0
    1fe4:	eb000dfd 	bl	57e0 <__aeabi_idivmod>
    1fe8:	e58410b4 	str	r1, [r4, #180]	; 0xb4
    OPTIONS_UPDATE = true;
    1fec:	e3a03001 	mov	r3, #1
    1ff0:	e5c430ac 	strb	r3, [r4, #172]	; 0xac
    1ff4:	e8bd8010 	pop	{r4, pc}

00001ff8 <choosePreviousOption>:
}

void choosePreviousOption() {
    1ff8:	e92d4010 	push	{r4, lr}
    OPTIONS_INDEX = (OPTIONS_SIZE + OPTIONS_INDEX - 1) % OPTIONS_SIZE;
    1ffc:	e3034b20 	movw	r4, #15136	; 0x3b20
    2000:	e3404005 	movt	r4, #5
    2004:	e59410b0 	ldr	r1, [r4, #176]	; 0xb0
    2008:	e59400b4 	ldr	r0, [r4, #180]	; 0xb4
    200c:	e0810000 	add	r0, r1, r0
    2010:	e2400001 	sub	r0, r0, #1
    2014:	eb000df1 	bl	57e0 <__aeabi_idivmod>
    2018:	e58410b4 	str	r1, [r4, #180]	; 0xb4
    OPTIONS_UPDATE = true;
    201c:	e3a03001 	mov	r3, #1
    2020:	e5c430ac 	strb	r3, [r4, #172]	; 0xac
    2024:	e8bd8010 	pop	{r4, pc}

00002028 <cycleOptionRight>:
}

void cycleOptionRight() {
    2028:	e92d4008 	push	{r3, lr}
    if (OPTIONS_INDEX == 0) // Input Type
    202c:	e3033b20 	movw	r3, #15136	; 0x3b20
    2030:	e3403005 	movt	r3, #5
    2034:	e59330b4 	ldr	r3, [r3, #180]	; 0xb4
    2038:	e3530000 	cmp	r3, #0
    203c:	1a000006 	bne	205c <cycleOptionRight+0x34>
        SETTINGS.INPUT_TYPE = (SETTINGS.INPUT_TYPE == KEYS) ? KEYBOARD : KEYS;
    2040:	e3033b20 	movw	r3, #15136	; 0x3b20
    2044:	e3403005 	movt	r3, #5
    2048:	e5d32015 	ldrb	r2, [r3, #21]
    204c:	e2722001 	rsbs	r2, r2, #1
    2050:	33a02000 	movcc	r2, #0
    2054:	e5c32015 	strb	r2, [r3, #21]
    2058:	ea000022 	b	20e8 <cycleOptionRight+0xc0>
    else if (OPTIONS_INDEX == 1) // Control Scheme
    205c:	e3033b20 	movw	r3, #15136	; 0x3b20
    2060:	e3403005 	movt	r3, #5
    2064:	e59330b4 	ldr	r3, [r3, #180]	; 0xb4
    2068:	e3530001 	cmp	r3, #1
    206c:	1a000006 	bne	208c <cycleOptionRight+0x64>
        SETTINGS.CONTROL_SCHEME = (SETTINGS.CONTROL_SCHEME == DISCRETE) ? CONTINUOUS : DISCRETE;
    2070:	e3033b20 	movw	r3, #15136	; 0x3b20
    2074:	e3403005 	movt	r3, #5
    2078:	e5d32016 	ldrb	r2, [r3, #22]
    207c:	e2722001 	rsbs	r2, r2, #1
    2080:	33a02000 	movcc	r2, #0
    2084:	e5c32016 	strb	r2, [r3, #22]
    2088:	ea000016 	b	20e8 <cycleOptionRight+0xc0>
    else if (OPTIONS_INDEX == 2) // Time Mode
    208c:	e3033b20 	movw	r3, #15136	; 0x3b20
    2090:	e3403005 	movt	r3, #5
    2094:	e59330b4 	ldr	r3, [r3, #180]	; 0xb4
    2098:	e3530002 	cmp	r3, #2
    209c:	1a000006 	bne	20bc <cycleOptionRight+0x94>
        SETTINGS.TIME_MODE = (SETTINGS.TIME_MODE == SECONDS) ? MILLISECONDS : SECONDS;
    20a0:	e3033b20 	movw	r3, #15136	; 0x3b20
    20a4:	e3403005 	movt	r3, #5
    20a8:	e5d32003 	ldrb	r2, [r3, #3]
    20ac:	e2722001 	rsbs	r2, r2, #1
    20b0:	33a02000 	movcc	r2, #0
    20b4:	e5c32003 	strb	r2, [r3, #3]
    20b8:	ea00000a 	b	20e8 <cycleOptionRight+0xc0>
    else if (OPTIONS_INDEX == 3) // Difficulty
    20bc:	e3033b20 	movw	r3, #15136	; 0x3b20
    20c0:	e3403005 	movt	r3, #5
    20c4:	e59330b4 	ldr	r3, [r3, #180]	; 0xb4
    20c8:	e3530003 	cmp	r3, #3
    20cc:	1a000005 	bne	20e8 <cycleOptionRight+0xc0>
        apply_difficulty((SETTINGS.DIFFICULTY + 1) % 4);
    20d0:	e3033b20 	movw	r3, #15136	; 0x3b20
    20d4:	e3403005 	movt	r3, #5
    20d8:	e5d30002 	ldrb	r0, [r3, #2]
    20dc:	e2800001 	add	r0, r0, #1
    20e0:	e2000003 	and	r0, r0, #3
    20e4:	ebffff3e 	bl	1de4 <apply_difficulty>
    OPTIONS_UPDATE = true;
    20e8:	e3033b20 	movw	r3, #15136	; 0x3b20
    20ec:	e3403005 	movt	r3, #5
    20f0:	e3a02001 	mov	r2, #1
    20f4:	e5c320ac 	strb	r2, [r3, #172]	; 0xac
    20f8:	e8bd8008 	pop	{r3, pc}

000020fc <cycleOptionLeft>:
}

void cycleOptionLeft() {
    20fc:	e92d4008 	push	{r3, lr}
    if (OPTIONS_INDEX == 0) // Input Type
    2100:	e3033b20 	movw	r3, #15136	; 0x3b20
    2104:	e3403005 	movt	r3, #5
    2108:	e59330b4 	ldr	r3, [r3, #180]	; 0xb4
    210c:	e3530000 	cmp	r3, #0
    2110:	1a000006 	bne	2130 <cycleOptionLeft+0x34>
        SETTINGS.INPUT_TYPE = (SETTINGS.INPUT_TYPE == KEYS) ? KEYBOARD : KEYS;
    2114:	e3033b20 	movw	r3, #15136	; 0x3b20
    2118:	e3403005 	movt	r3, #5
    211c:	e5d32015 	ldrb	r2, [r3, #21]
    2120:	e2722001 	rsbs	r2, r2, #1
    2124:	33a02000 	movcc	r2, #0
    2128:	e5c32015 	strb	r2, [r3, #21]
    212c:	ea000022 	b	21bc <cycleOptionLeft+0xc0>
    else if (OPTIONS_INDEX == 1) // Control Scheme
    2130:	e3033b20 	movw	r3, #15136	; 0x3b20
    2134:	e3403005 	movt	r3, #5
    2138:	e59330b4 	ldr	r3, [r3, #180]	; 0xb4
    213c:	e3530001 	cmp	r3, #1
    2140:	1a000006 	bne	2160 <cycleOptionLeft+0x64>
        SETTINGS.CONTROL_SCHEME = (SETTINGS.CONTROL_SCHEME == DISCRETE) ? CONTINUOUS : DISCRETE;
    2144:	e3033b20 	movw	r3, #15136	; 0x3b20
    2148:	e3403005 	movt	r3, #5
    214c:	e5d32016 	ldrb	r2, [r3, #22]
    2150:	e2722001 	rsbs	r2, r2, #1
    2154:	33a02000 	movcc	r2, #0
    2158:	e5c32016 	strb	r2, [r3, #22]
    215c:	ea000016 	b	21bc <cycleOptionLeft+0xc0>
    else if (OPTIONS_INDEX == 2) // Time Mode
    2160:	e3033b20 	movw	r3, #15136	; 0x3b20
    2164:	e3403005 	movt	r3, #5
    2168:	e59330b4 	ldr	r3, [r3, #180]	; 0xb4
    216c:	e3530002 	cmp	r3, #2
    2170:	1a000006 	bne	2190 <cycleOptionLeft+0x94>
        SETTINGS.TIME_MODE = (SETTINGS.TIME_MODE == SECONDS) ? MILLISECONDS : SECONDS;
    2174:	e3033b20 	movw	r3, #15136	; 0x3b20
    2178:	e3403005 	movt	r3, #5
    217c:	e5d32003 	ldrb	r2, [r3, #3]
    2180:	e2722001 	rsbs	r2, r2, #1
    2184:	33a02000 	movcc	r2, #0
    2188:	e5c32003 	strb	r2, [r3, #3]
    218c:	ea00000a 	b	21bc <cycleOptionLeft+0xc0>
    else if (OPTIONS_INDEX == 3) // Difficulty
    2190:	e3033b20 	movw	r3, #15136	; 0x3b20
    2194:	e3403005 	movt	r3, #5
    2198:	e59330b4 	ldr	r3, [r3, #180]	; 0xb4
    219c:	e3530003 	cmp	r3, #3
    21a0:	1a000005 	bne	21bc <cycleOptionLeft+0xc0>
        apply_difficulty((4 + SETTINGS.DIFFICULTY - 1) % 4);
    21a4:	e3033b20 	movw	r3, #15136	; 0x3b20
    21a8:	e3403005 	movt	r3, #5
    21ac:	e5d30002 	ldrb	r0, [r3, #2]
    21b0:	e2800003 	add	r0, r0, #3
    21b4:	e2000003 	and	r0, r0, #3
    21b8:	ebffff09 	bl	1de4 <apply_difficulty>
    OPTIONS_UPDATE = true;
    21bc:	e3033b20 	movw	r3, #15136	; 0x3b20
    21c0:	e3403005 	movt	r3, #5
    21c4:	e3a02001 	mov	r2, #1
    21c8:	e5c320ac 	strb	r2, [r3, #172]	; 0xac
    21cc:	e8bd8008 	pop	{r3, pc}

000021d0 <__cs3_reset>:
#include "interrupt_ids.h"
#include "player.h"
#include "utils.h"

//  *************   Vector Table Callback Functions     ************** //
void __attribute__((interrupt)) __cs3_reset() {
    21d0:	eafffffe 	b	21d0 <__cs3_reset>

000021d4 <__cs3_isr_undef>:
    while (true);
}

void __attribute__((interrupt)) __cs3_isr_undef() {
    21d4:	eafffffe 	b	21d4 <__cs3_isr_undef>

000021d8 <__cs3_isr_swi>:
    while (true);
}

void __attribute__((interrupt)) __cs3_isr_swi() {
    21d8:	eafffffe 	b	21d8 <__cs3_isr_swi>

000021dc <__cs3_isr_pabort>:
    while (true);
}

void __attribute__((interrupt)) __cs3_isr_pabort() {
    21dc:	eafffffe 	b	21dc <__cs3_isr_pabort>

000021e0 <__cs3_isr_dabort>:
    while (true);
}

void __attribute__((interrupt)) __cs3_isr_dabort() {
    21e0:	eafffffe 	b	21e0 <__cs3_isr_dabort>

000021e4 <__cs3_isr_fiq>:
    while (true);
}

void __attribute__((interrupt)) __cs3_isr_fiq() {
    21e4:	eafffffe 	b	21e4 <__cs3_isr_fiq>

000021e8 <config_stack_pointers>:
// Configure stack pointer for IRQ mode
void config_stack_pointers() {
    int stack, mode;
    stack = A9_ONCHIP_END - 7;
    mode = INT_DISABLE | IRQ_MODE;
    asm("msr cpsr, %[ps]" : : [ps] "r"(mode));
    21e8:	e3a030d2 	mov	r3, #210	; 0xd2
    21ec:	e129f003 	msr	CPSR_fc, r3
    asm("mov sp, %[ps]" : : [ps] "r"(stack));
    21f0:	e3e03007 	mvn	r3, #7
    21f4:	e1a0d003 	mov	sp, r3

    mode = INT_DISABLE | SVC_MODE;
    asm("msr cpsr, %[ps]" : : [ps] "r"(mode));
    21f8:	e3a030d3 	mov	r3, #211	; 0xd3
    21fc:	e129f003 	msr	CPSR_fc, r3
    2200:	e12fff1e 	bx	lr

00002204 <config_arm_interrupt>:
}

// Configure interrupt for arm processor
void config_arm_interrupt() {
    int value = SVC_MODE | INT_ENABLE;
    __asm__ volatile ("MSR CPSR, %0" :: "r" (value));
    2204:	e3a03053 	mov	r3, #83	; 0x53
    2208:	e129f003 	msr	CPSR_fc, r3
    220c:	e12fff1e 	bx	lr

00002210 <config_key_interrupt>:
}

// Enable key interrupts
void config_key_interrupt() {
    volatile int * key_base = (int *) KEY_BASE;
    *(key_base + 2) = 0xFFFF;   // Set up interrupt masks
    2210:	e3a03000 	mov	r3, #0
    2214:	e34f3f20 	movt	r3, #65312	; 0xff20
    2218:	e30f2fff 	movw	r2, #65535	; 0xffff
    221c:	e5832058 	str	r2, [r3, #88]	; 0x58
    *(key_base + 3) = 0xFFFF;   // Reset edge captures
    2220:	e583205c 	str	r2, [r3, #92]	; 0x5c
    2224:	e12fff1e 	bx	lr

00002228 <config_priv_timer_interrupt>:

// Enable priv timer interrupts
void config_priv_timer_interrupt() {
    volatile int * priv_timer_base = (int *) MPCORE_PRIV_TIMER;
    int load_value = 0.01 * 200 * 1000000;  // Tick every 0.01s
    *priv_timer_base = load_value;
    2228:	e3e03a13 	mvn	r3, #77824	; 0x13000
    222c:	e3082480 	movw	r2, #33920	; 0x8480
    2230:	e340201e 	movt	r2, #30
    2234:	e50329ff 	str	r2, [r3, #-2559]	; 0xfffff601
    *(priv_timer_base + 2) = 0b111; // Enable interrupt, autoload and enable
    2238:	e3a02007 	mov	r2, #7
    223c:	e50329f7 	str	r2, [r3, #-2551]	; 0xfffff609
    2240:	e12fff1e 	bx	lr

00002244 <config_ps2_interrupt>:
}

// Enable PS/2 port interrupts
void config_ps2_interrupt() {
    volatile int * ps2_base = (int *) PS2_BASE;
    *(ps2_base) = 0xFF;     // reset
    2244:	e3a03000 	mov	r3, #0
    2248:	e34f3f20 	movt	r3, #65312	; 0xff20
    224c:	e3a020ff 	mov	r2, #255	; 0xff
    2250:	e5832100 	str	r2, [r3, #256]	; 0x100
    *(ps2_base + 1) = 1;    // enable interrupts
    2254:	e3a02001 	mov	r2, #1
    2258:	e5832104 	str	r2, [r3, #260]	; 0x104
    225c:	e12fff1e 	bx	lr

00002260 <on_key_press>:

//  *************   End Of Config Interrupts     ************** //


// Called on key interrupt
void on_key_press() {
    2260:	e92d40f0 	push	{r4, r5, r6, r7, lr}
    2264:	e24dd00c 	sub	sp, sp, #12
    volatile int *key_base = (int *) KEY_BASE;
    volatile int edge = *(key_base + 3) & 0xF;
    2268:	e3a03000 	mov	r3, #0
    226c:	e34f3f20 	movt	r3, #65312	; 0xff20
    2270:	e593305c 	ldr	r3, [r3, #92]	; 0x5c
    2274:	e203300f 	and	r3, r3, #15
    2278:	e58d3004 	str	r3, [sp, #4]

    if (edge == KEY0) {
    227c:	e59d3004 	ldr	r3, [sp, #4]
    2280:	e3530001 	cmp	r3, #1
    2284:	1a00003a 	bne	2374 <on_key_press+0x114>
        // Key 0 Press
        if (GAME_STATE.MODE == TITLE) {
    2288:	e3033b3c 	movw	r3, #15164	; 0x3b3c
    228c:	e3403005 	movt	r3, #5
    2290:	e5d3300c 	ldrb	r3, [r3, #12]
    2294:	e3530000 	cmp	r3, #0
    2298:	1a00001b 	bne	230c <on_key_press+0xac>
            if (TITLE_INDEX == 0) {
    229c:	e3033bc8 	movw	r3, #15304	; 0x3bc8
    22a0:	e3403005 	movt	r3, #5
    22a4:	e5933000 	ldr	r3, [r3]
    22a8:	e3530000 	cmp	r3, #0
    22ac:	1a000008 	bne	22d4 <on_key_press+0x74>
                GAME_STATE.MODE = GAME;
    22b0:	e3033b3c 	movw	r3, #15164	; 0x3b3c
    22b4:	e3403005 	movt	r3, #5
    22b8:	e3a02002 	mov	r2, #2
    22bc:	e5c3200c 	strb	r2, [r3, #12]
                INIT_GAME_REQUEST = true;
    22c0:	e3033b4c 	movw	r3, #15180	; 0x3b4c
    22c4:	e3403005 	movt	r3, #5
    22c8:	e3a02001 	mov	r2, #1
    22cc:	e5c32000 	strb	r2, [r3]
    22d0:	ea0000a9 	b	257c <on_key_press+0x31c>
            } else if (TITLE_INDEX == 1) {
    22d4:	e3033bc8 	movw	r3, #15304	; 0x3bc8
    22d8:	e3403005 	movt	r3, #5
    22dc:	e5933000 	ldr	r3, [r3]
    22e0:	e3530001 	cmp	r3, #1
    22e4:	1a0000a4 	bne	257c <on_key_press+0x31c>
                GAME_STATE.MODE = OPTIONS;
    22e8:	e3033b3c 	movw	r3, #15164	; 0x3b3c
    22ec:	e3403005 	movt	r3, #5
    22f0:	e3a02001 	mov	r2, #1
    22f4:	e5c3200c 	strb	r2, [r3, #12]
                OPTIONS_INDEX = 0;
    22f8:	e3033bd4 	movw	r3, #15316	; 0x3bd4
    22fc:	e3403005 	movt	r3, #5
    2300:	e3a02000 	mov	r2, #0
    2304:	e5832000 	str	r2, [r3]
    2308:	ea00009b 	b	257c <on_key_press+0x31c>
            }
        } else if (SETTINGS.INPUT_TYPE == KEYS && GAME_STATE.MODE == GAME && SETTINGS.CONTROL_SCHEME == DISCRETE)
    230c:	e3033b20 	movw	r3, #15136	; 0x3b20
    2310:	e3403005 	movt	r3, #5
    2314:	e5d33015 	ldrb	r3, [r3, #21]
    2318:	e3530000 	cmp	r3, #0
    231c:	1a00000d 	bne	2358 <on_key_press+0xf8>
    2320:	e3033b3c 	movw	r3, #15164	; 0x3b3c
    2324:	e3403005 	movt	r3, #5
    2328:	e5d3300c 	ldrb	r3, [r3, #12]
    232c:	e3530002 	cmp	r3, #2
    2330:	1a000008 	bne	2358 <on_key_press+0xf8>
    2334:	e3033b20 	movw	r3, #15136	; 0x3b20
    2338:	e3403005 	movt	r3, #5
    233c:	e5d33016 	ldrb	r3, [r3, #22]
    2340:	e3530000 	cmp	r3, #0
    2344:	1a000003 	bne	2358 <on_key_press+0xf8>
            movePlayerRight(&PLAYER);
    2348:	e3030e70 	movw	r0, #15984	; 0x3e70
    234c:	e3400005 	movt	r0, #5
    2350:	eb0001fe 	bl	2b50 <movePlayerRight>
    2354:	ea000088 	b	257c <on_key_press+0x31c>
        else if (GAME_STATE.MODE == OPTIONS)
    2358:	e3033b3c 	movw	r3, #15164	; 0x3b3c
    235c:	e3403005 	movt	r3, #5
    2360:	e5d3300c 	ldrb	r3, [r3, #12]
    2364:	e3530001 	cmp	r3, #1
    2368:	1a000083 	bne	257c <on_key_press+0x31c>
            cycleOptionRight();
    236c:	ebffff2d 	bl	2028 <cycleOptionRight>
    2370:	ea000081 	b	257c <on_key_press+0x31c>
    } else if (edge == KEY1) {
    2374:	e59d3004 	ldr	r3, [sp, #4]
    2378:	e3530002 	cmp	r3, #2
    237c:	1a000028 	bne	2424 <on_key_press+0x1c4>
        // Key 1 Press
        if (GAME_STATE.MODE == TITLE)
    2380:	e3033b3c 	movw	r3, #15164	; 0x3b3c
    2384:	e3403005 	movt	r3, #5
    2388:	e5d3300c 	ldrb	r3, [r3, #12]
    238c:	e3530000 	cmp	r3, #0
    2390:	1a000009 	bne	23bc <on_key_press+0x15c>
            TITLE_INDEX = (TITLE_INDEX + 1) % TITLE_SIZE;
    2394:	e3034bc8 	movw	r4, #15304	; 0x3bc8
    2398:	e3404005 	movt	r4, #5
    239c:	e5940000 	ldr	r0, [r4]
    23a0:	e3033bc4 	movw	r3, #15300	; 0x3bc4
    23a4:	e3403005 	movt	r3, #5
    23a8:	e2800001 	add	r0, r0, #1
    23ac:	e5931000 	ldr	r1, [r3]
    23b0:	eb000d0a 	bl	57e0 <__aeabi_idivmod>
    23b4:	e5841000 	str	r1, [r4]
    23b8:	ea00006f 	b	257c <on_key_press+0x31c>
        else if (SETTINGS.INPUT_TYPE == KEYS && GAME_STATE.MODE == GAME && SETTINGS.CONTROL_SCHEME == DISCRETE)
    23bc:	e3033b20 	movw	r3, #15136	; 0x3b20
    23c0:	e3403005 	movt	r3, #5
    23c4:	e5d33015 	ldrb	r3, [r3, #21]
    23c8:	e3530000 	cmp	r3, #0
    23cc:	1a00000d 	bne	2408 <on_key_press+0x1a8>
    23d0:	e3033b3c 	movw	r3, #15164	; 0x3b3c
    23d4:	e3403005 	movt	r3, #5
    23d8:	e5d3300c 	ldrb	r3, [r3, #12]
    23dc:	e3530002 	cmp	r3, #2
    23e0:	1a000008 	bne	2408 <on_key_press+0x1a8>
    23e4:	e3033b20 	movw	r3, #15136	; 0x3b20
    23e8:	e3403005 	movt	r3, #5
    23ec:	e5d33016 	ldrb	r3, [r3, #22]
    23f0:	e3530000 	cmp	r3, #0
    23f4:	1a000003 	bne	2408 <on_key_press+0x1a8>
            movePlayerLeft(&PLAYER);
    23f8:	e3030e70 	movw	r0, #15984	; 0x3e70
    23fc:	e3400005 	movt	r0, #5
    2400:	eb0001f8 	bl	2be8 <movePlayerLeft>
    2404:	ea00005c 	b	257c <on_key_press+0x31c>
        else if (GAME_STATE.MODE == OPTIONS)
    2408:	e3033b3c 	movw	r3, #15164	; 0x3b3c
    240c:	e3403005 	movt	r3, #5
    2410:	e5d3300c 	ldrb	r3, [r3, #12]
    2414:	e3530001 	cmp	r3, #1
    2418:	1a000057 	bne	257c <on_key_press+0x31c>
            chooseNextOption();
    241c:	ebfffeea 	bl	1fcc <chooseNextOption>
    2420:	ea000055 	b	257c <on_key_press+0x31c>
    } else if (edge == KEY2) {
    2424:	e59d3004 	ldr	r3, [sp, #4]
    2428:	e3530004 	cmp	r3, #4
    242c:	1a000035 	bne	2508 <on_key_press+0x2a8>
        // Key 2 Press
        if (GAME_STATE.MODE == TITLE)
    2430:	e3033b3c 	movw	r3, #15164	; 0x3b3c
    2434:	e3403005 	movt	r3, #5
    2438:	e5d3300c 	ldrb	r3, [r3, #12]
    243c:	e3530000 	cmp	r3, #0
    2440:	1a00000a 	bne	2470 <on_key_press+0x210>
            TITLE_INDEX = (TITLE_SIZE + TITLE_INDEX - 1) % TITLE_SIZE;
    2444:	e3033bc4 	movw	r3, #15300	; 0x3bc4
    2448:	e3403005 	movt	r3, #5
    244c:	e5931000 	ldr	r1, [r3]
    2450:	e3034bc8 	movw	r4, #15304	; 0x3bc8
    2454:	e3404005 	movt	r4, #5
    2458:	e5940000 	ldr	r0, [r4]
    245c:	e0810000 	add	r0, r1, r0
    2460:	e2400001 	sub	r0, r0, #1
    2464:	eb000cdd 	bl	57e0 <__aeabi_idivmod>
    2468:	e5841000 	str	r1, [r4]
    246c:	ea000042 	b	257c <on_key_press+0x31c>
        else if (GAME_STATE.MODE == GAME && SETTINGS.DIFFICULTY == DEBUG) {
    2470:	e3033b3c 	movw	r3, #15164	; 0x3b3c
    2474:	e3403005 	movt	r3, #5
    2478:	e5d3300c 	ldrb	r3, [r3, #12]
    247c:	e3530002 	cmp	r3, #2
    2480:	1a000019 	bne	24ec <on_key_press+0x28c>
    2484:	e3033b20 	movw	r3, #15136	; 0x3b20
    2488:	e3403005 	movt	r3, #5
    248c:	e5d33002 	ldrb	r3, [r3, #2]
    2490:	e3530000 	cmp	r3, #0
    2494:	1a000014 	bne	24ec <on_key_press+0x28c>
    2498:	e3035c6c 	movw	r5, #15468	; 0x3c6c
    249c:	e3405005 	movt	r5, #5
    24a0:	e3a04000 	mov	r4, #0
            int i;
            for (i = 0; i < SIZE; ++i) {
                int speed = (HEXAGONS[i].speed + 1) % 4;
                if (speed == 0)
                    speed = 1;
                set_hexagon_speed(&HEXAGONS[i], speed);
    24a4:	e3a070ac 	mov	r7, #172	; 0xac
    24a8:	e1a06005 	mov	r6, r5
        if (GAME_STATE.MODE == TITLE)
            TITLE_INDEX = (TITLE_SIZE + TITLE_INDEX - 1) % TITLE_SIZE;
        else if (GAME_STATE.MODE == GAME && SETTINGS.DIFFICULTY == DEBUG) {
            int i;
            for (i = 0; i < SIZE; ++i) {
                int speed = (HEXAGONS[i].speed + 1) % 4;
    24ac:	e595109c 	ldr	r1, [r5, #156]	; 0x9c
    24b0:	e2811001 	add	r1, r1, #1
    24b4:	e1a03fc1 	asr	r3, r1, #31
    24b8:	e1a03f23 	lsr	r3, r3, #30
    24bc:	e0811003 	add	r1, r1, r3
    24c0:	e2011003 	and	r1, r1, #3
                if (speed == 0)
    24c4:	e0631001 	rsb	r1, r3, r1
                    speed = 1;
                set_hexagon_speed(&HEXAGONS[i], speed);
    24c8:	e0206497 	mla	r0, r7, r4, r6
    24cc:	e3510000 	cmp	r1, #0
    24d0:	03a01001 	moveq	r1, #1
    24d4:	ebfffd36 	bl	19b4 <set_hexagon_speed>
        // Key 2 Press
        if (GAME_STATE.MODE == TITLE)
            TITLE_INDEX = (TITLE_SIZE + TITLE_INDEX - 1) % TITLE_SIZE;
        else if (GAME_STATE.MODE == GAME && SETTINGS.DIFFICULTY == DEBUG) {
            int i;
            for (i = 0; i < SIZE; ++i) {
    24d8:	e2844001 	add	r4, r4, #1
    24dc:	e28550ac 	add	r5, r5, #172	; 0xac
    24e0:	e3540003 	cmp	r4, #3
    24e4:	1afffff0 	bne	24ac <on_key_press+0x24c>
    24e8:	ea000023 	b	257c <on_key_press+0x31c>
                int speed = (HEXAGONS[i].speed + 1) % 4;
                if (speed == 0)
                    speed = 1;
                set_hexagon_speed(&HEXAGONS[i], speed);
            }
        } else if (GAME_STATE.MODE == OPTIONS)
    24ec:	e3033b3c 	movw	r3, #15164	; 0x3b3c
    24f0:	e3403005 	movt	r3, #5
    24f4:	e5d3300c 	ldrb	r3, [r3, #12]
    24f8:	e3530001 	cmp	r3, #1
    24fc:	1a00001e 	bne	257c <on_key_press+0x31c>
            choosePreviousOption();
    2500:	ebfffebc 	bl	1ff8 <choosePreviousOption>
    2504:	ea00001c 	b	257c <on_key_press+0x31c>
    } else if (edge == KEY3) {
    2508:	e59d3004 	ldr	r3, [sp, #4]
    250c:	e3530008 	cmp	r3, #8
    2510:	1a000019 	bne	257c <on_key_press+0x31c>
        // Key 3 Press
        if (GAME_STATE.MODE == GAME) {
    2514:	e3033b3c 	movw	r3, #15164	; 0x3b3c
    2518:	e3403005 	movt	r3, #5
    251c:	e5d3300c 	ldrb	r3, [r3, #12]
    2520:	e3530002 	cmp	r3, #2
    2524:	1a000007 	bne	2548 <on_key_press+0x2e8>
            //GAME_STATE.RUN = !GAME_STATE.RUN;
            //setLED(0, GAME_STATE.RUN);
            GAME_STATE.MODE = TITLE;
    2528:	e3033b3c 	movw	r3, #15164	; 0x3b3c
    252c:	e3403005 	movt	r3, #5
    2530:	e3a02000 	mov	r2, #0
    2534:	e5c3200c 	strb	r2, [r3, #12]
            TITLE_INDEX = 0;
    2538:	e3033bc8 	movw	r3, #15304	; 0x3bc8
    253c:	e3403005 	movt	r3, #5
    2540:	e5832000 	str	r2, [r3]
    2544:	ea00000c 	b	257c <on_key_press+0x31c>
        } else if (GAME_STATE.MODE == OPTIONS) {
    2548:	e3033b3c 	movw	r3, #15164	; 0x3b3c
    254c:	e3403005 	movt	r3, #5
    2550:	e5d3300c 	ldrb	r3, [r3, #12]
    2554:	e3530001 	cmp	r3, #1
    2558:	1a000007 	bne	257c <on_key_press+0x31c>
            GAME_STATE.MODE = TITLE;
    255c:	e3033b3c 	movw	r3, #15164	; 0x3b3c
    2560:	e3403005 	movt	r3, #5
    2564:	e3a02000 	mov	r2, #0
    2568:	e5c3200c 	strb	r2, [r3, #12]
            TITLE_INDEX = 1;
    256c:	e3033bc8 	movw	r3, #15304	; 0x3bc8
    2570:	e3403005 	movt	r3, #5
    2574:	e3a02001 	mov	r2, #1
    2578:	e5832000 	str	r2, [r3]
        }
    }

    // Reset edge
    *(key_base + 3) = edge;
    257c:	e59d2004 	ldr	r2, [sp, #4]
    2580:	e3a03000 	mov	r3, #0
    2584:	e34f3f20 	movt	r3, #65312	; 0xff20
    2588:	e583205c 	str	r2, [r3, #92]	; 0x5c
}
    258c:	e28dd00c 	add	sp, sp, #12
    2590:	e8bd80f0 	pop	{r4, r5, r6, r7, pc}

00002594 <on_priv_timer_tick>:

// Called on priv timer tick
void on_priv_timer_tick() {
    2594:	e92d4008 	push	{r3, lr}
    volatile int * priv_timer_base = (int *) MPCORE_PRIV_TIMER;

    // Update timer events if playing
    if (GAME_STATE.MODE == GAME && GAME_STATE.RUN) {
    2598:	e3033b3c 	movw	r3, #15164	; 0x3b3c
    259c:	e3403005 	movt	r3, #5
    25a0:	e5d3300c 	ldrb	r3, [r3, #12]
    25a4:	e3530002 	cmp	r3, #2
    25a8:	1a000033 	bne	267c <on_priv_timer_tick+0xe8>
    25ac:	e3033b3c 	movw	r3, #15164	; 0x3b3c
    25b0:	e3403005 	movt	r3, #5
    25b4:	e5d33000 	ldrb	r3, [r3]
    25b8:	e3530000 	cmp	r3, #0
    25bc:	0a00002e 	beq	267c <on_priv_timer_tick+0xe8>
        // Add 1ms to game time
        GAME_STATE.GAME_TIME++;
    25c0:	e3033b3c 	movw	r3, #15164	; 0x3b3c
    25c4:	e3403005 	movt	r3, #5
    25c8:	e5932004 	ldr	r2, [r3, #4]
    25cc:	e2822001 	add	r2, r2, #1
    25d0:	e5832004 	str	r2, [r3, #4]

        // Timer Events:

        // Check if time to change screen rotation direction
        if (!SETTINGS.DEBUG && SETTINGS.SCREEN_ROTATE) {
    25d4:	e3033b20 	movw	r3, #15136	; 0x3b20
    25d8:	e3403005 	movt	r3, #5
    25dc:	e5d33000 	ldrb	r3, [r3]
    25e0:	e3530000 	cmp	r3, #0
    25e4:	1a000024 	bne	267c <on_priv_timer_tick+0xe8>
    25e8:	e3033b20 	movw	r3, #15136	; 0x3b20
    25ec:	e3403005 	movt	r3, #5
    25f0:	e5d33004 	ldrb	r3, [r3, #4]
    25f4:	e3530000 	cmp	r3, #0
    25f8:	0a00001f 	beq	267c <on_priv_timer_tick+0xe8>
            SCREEN_ROTATION_CHANGE_TIMER--;
    25fc:	e3033bd8 	movw	r3, #15320	; 0x3bd8
    2600:	e3403005 	movt	r3, #5
    2604:	e5932000 	ldr	r2, [r3]
    2608:	e2422001 	sub	r2, r2, #1
    260c:	e5832000 	str	r2, [r3]
            if (SCREEN_ROTATION_CHANGE_TIMER == 0) {
    2610:	e5933000 	ldr	r3, [r3]
    2614:	e3530000 	cmp	r3, #0
    2618:	1a000017 	bne	267c <on_priv_timer_tick+0xe8>
                // Change screen rotation direction
                if (SETTINGS.SCREEN_ROTATION_DIRECTION == CLOCKWISE)
    261c:	e3033b20 	movw	r3, #15136	; 0x3b20
    2620:	e3403005 	movt	r3, #5
    2624:	e5d33005 	ldrb	r3, [r3, #5]
    2628:	e3530000 	cmp	r3, #0
                    SETTINGS.SCREEN_ROTATION_DIRECTION = COUNTER_CLOCKWISE;
    262c:	e3033b20 	movw	r3, #15136	; 0x3b20
    2630:	e3403005 	movt	r3, #5
    2634:	03a02001 	moveq	r2, #1
                else
                    SETTINGS.SCREEN_ROTATION_DIRECTION = CLOCKWISE;
    2638:	13a02000 	movne	r2, #0
    263c:	e5c32005 	strb	r2, [r3, #5]

                // Reset time to change direction
                SCREEN_ROTATION_CHANGE_TIMER = 100 * (7 + rand() % 7);
    2640:	eb001195 	bl	6c9c <rand>
    2644:	e3023493 	movw	r3, #9363	; 0x2493
    2648:	e3493249 	movt	r3, #37449	; 0x9249
    264c:	e0c32093 	smull	r2, r3, r3, r0
    2650:	e0833000 	add	r3, r3, r0
    2654:	e1a02fc0 	asr	r2, r0, #31
    2658:	e0623143 	rsb	r3, r2, r3, asr #2
    265c:	e0633183 	rsb	r3, r3, r3, lsl #3
    2660:	e0630000 	rsb	r0, r3, r0
    2664:	e3a02064 	mov	r2, #100	; 0x64
    2668:	e0020092 	mul	r2, r2, r0
    266c:	e2822faf 	add	r2, r2, #700	; 0x2bc
    2670:	e3033bd8 	movw	r3, #15320	; 0x3bd8
    2674:	e3403005 	movt	r3, #5
    2678:	e5832000 	str	r2, [r3]
                                    BACKGROUND_COLORS[1] : BACKGROUND_COLORS[0];
        }
    }*/

    // Reset Timer "F" Flag
    *(priv_timer_base + 3) = 1;
    267c:	e3a02001 	mov	r2, #1
    2680:	e3e03a13 	mvn	r3, #77824	; 0x13000
    2684:	e50329f3 	str	r2, [r3, #-2547]	; 0xfffff60d
    2688:	e8bd8008 	pop	{r3, pc}

0000268c <on_ps2_press>:
}

// Called on PS/2 interrupt
void on_ps2_press() {
    268c:	e92d4ff0 	push	{r4, r5, r6, r7, r8, r9, r10, r11, lr}
    2690:	e24dd014 	sub	sp, sp, #20
                    // Space Key
                    if (is_break && GAME_STATE.MODE == TITLE)
                        GAME_STATE.MODE = GAME;
                } else if (data == ESC) {
                    // Escape Key
                    if (is_break && GAME_STATE.MODE == GAME) {
    2694:	e3034b3c 	movw	r4, #15164	; 0x3b3c
    2698:	e3404005 	movt	r4, #5
                        GAME_STATE.MODE = TITLE;
                        TITLE_INDEX = 0;
                    } else if (is_break && GAME_STATE.MODE == OPTIONS) {
                        GAME_STATE.MODE = TITLE;
                        TITLE_INDEX = 1;
    269c:	e3035bc8 	movw	r5, #15304	; 0x3bc8
    26a0:	e3405005 	movt	r5, #5
                        if (TITLE_INDEX == 0) {
                            GAME_STATE.MODE = GAME;
                            INIT_GAME_REQUEST = true;
                        } else if (TITLE_INDEX == 1) {
                            GAME_STATE.MODE = OPTIONS;
                            OPTIONS_INDEX = 0;
    26a4:	e3039bd4 	movw	r9, #15316	; 0x3bd4
    26a8:	e3409005 	movt	r9, #5
                if (data == ENTER_KEY) {
                    // Enter Key
                    if (is_break && GAME_STATE.MODE == TITLE) {
                        if (TITLE_INDEX == 0) {
                            GAME_STATE.MODE = GAME;
                            INIT_GAME_REQUEST = true;
    26ac:	e303ab4c 	movw	r10, #15180	; 0x3b4c
    26b0:	e340a005 	movt	r10, #5
                    if (GAME_STATE.MODE == GAME) {
                        PLAYER.move_left = !is_break;
                        if (is_break && SETTINGS.CONTROL_SCHEME == DISCRETE && SETTINGS.INPUT_TYPE == KEYBOARD)
                            movePlayerLeft(&PLAYER);
                    } else if (GAME_STATE.MODE == TITLE) {
                        TITLE_INDEX = (TITLE_SIZE + TITLE_INDEX - 1) % TITLE_SIZE;
    26b4:	e3037bc4 	movw	r7, #15300	; 0x3bc4
    26b8:	e3407005 	movt	r7, #5
                        cycleOptionRight();
                    }
                } else if (data == LEFT_ARROW) {
                    // Left Arrow
                    if (GAME_STATE.MODE == GAME) {
                        PLAYER.move_left = !is_break;
    26bc:	e3038e70 	movw	r8, #15984	; 0x3e70
    26c0:	e3408005 	movt	r8, #5
    int RVALID;
    volatile char data;

    //RVALID = *ps2_base & 0x8000;
    //if (RVALID) {
        while (*(ps2_base+1) & 0b100000000) {
    26c4:	ea0000b4 	b	299c <on_ps2_press+0x310>
            data = *ps2_base & 0xFF;
    26c8:	e3a03000 	mov	r3, #0
    26cc:	e34f3f20 	movt	r3, #65312	; 0xff20
    26d0:	e5933100 	ldr	r3, [r3, #256]	; 0x100
    26d4:	e6ef3073 	uxtb	r3, r3
    26d8:	e5cd300f 	strb	r3, [sp, #15]
            if (data == EXTENDED_KEYS) {
    26dc:	e5dd300f 	ldrb	r3, [sp, #15]
    26e0:	e35300e0 	cmp	r3, #224	; 0xe0
    26e4:	1a00007a 	bne	28d4 <on_ps2_press+0x248>
                // Extended Key Press
                data = *ps2_base & 0xFF;
    26e8:	e3a03000 	mov	r3, #0
    26ec:	e34f3f20 	movt	r3, #65312	; 0xff20
    26f0:	e5933100 	ldr	r3, [r3, #256]	; 0x100
    26f4:	e6ef3073 	uxtb	r3, r3
    26f8:	e5cd300f 	strb	r3, [sp, #15]
                bool is_break = false;
                if (data == BREAK) {
    26fc:	e5dd300f 	ldrb	r3, [sp, #15]
    2700:	e35300f0 	cmp	r3, #240	; 0xf0
                    // Is Break
                    is_break = true;
                    data = *ps2_base & 0xFF;
    2704:	03a03000 	moveq	r3, #0
    2708:	034f3f20 	movteq	r3, #65312	; 0xff20
    270c:	05933100 	ldreq	r3, [r3, #256]	; 0x100
    2710:	06ef3073 	uxtbeq	r3, r3
    2714:	05cd300f 	strbeq	r3, [sp, #15]
                // Extended Key Press
                data = *ps2_base & 0xFF;
                bool is_break = false;
                if (data == BREAK) {
                    // Is Break
                    is_break = true;
    2718:	03a06001 	moveq	r6, #1
        while (*(ps2_base+1) & 0b100000000) {
            data = *ps2_base & 0xFF;
            if (data == EXTENDED_KEYS) {
                // Extended Key Press
                data = *ps2_base & 0xFF;
                bool is_break = false;
    271c:	13a06000 	movne	r6, #0
                if (data == BREAK) {
                    // Is Break
                    is_break = true;
                    data = *ps2_base & 0xFF;
                }
                if (data == RIGHT_ARROW) {
    2720:	e5dd300f 	ldrb	r3, [sp, #15]
    2724:	e3530074 	cmp	r3, #116	; 0x74
    2728:	1a000032 	bne	27f8 <on_ps2_press+0x16c>
                    // Right Arrow
                    if (GAME_STATE.MODE == GAME) {
    272c:	e5d4300c 	ldrb	r3, [r4, #12]
    2730:	e3530002 	cmp	r3, #2
    2734:	1a000021 	bne	27c0 <on_ps2_press+0x134>
                        PLAYER.move_right = !is_break;
    2738:	e2263001 	eor	r3, r6, #1
    273c:	e5c83014 	strb	r3, [r8, #20]
                        bool b1 = is_break;
                        bool b2 = SETTINGS.CONTROL_SCHEME == DISCRETE;
    2740:	e3033b20 	movw	r3, #15136	; 0x3b20
    2744:	e3403005 	movt	r3, #5
    2748:	e5d32016 	ldrb	r2, [r3, #22]
    274c:	e58d2004 	str	r2, [sp, #4]
                        bool b3 = SETTINGS.INPUT_TYPE == KEYBOARD;
    2750:	e5d3b015 	ldrb	r11, [r3, #21]
                        if (b1)
    2754:	e3560000 	cmp	r6, #0
    2758:	0a000001 	beq	2764 <on_ps2_press+0xd8>
                            turnOnLED(1);
    275c:	e3a00001 	mov	r0, #1
    2760:	ebfffaf0 	bl	1328 <turnOnLED>
                        if (b2)
    2764:	e59d3004 	ldr	r3, [sp, #4]
    2768:	e3530000 	cmp	r3, #0
    276c:	1a000001 	bne	2778 <on_ps2_press+0xec>
                            turnOnLED(2);
    2770:	e3a00002 	mov	r0, #2
    2774:	ebfffaeb 	bl	1328 <turnOnLED>
                        if (b3)
    2778:	e35b0001 	cmp	r11, #1
    277c:	1a000001 	bne	2788 <on_ps2_press+0xfc>
                            turnOnLED(3);
    2780:	e3a00003 	mov	r0, #3
    2784:	ebfffae7 	bl	1328 <turnOnLED>
                        if (is_break && SETTINGS.CONTROL_SCHEME == DISCRETE && SETTINGS.INPUT_TYPE == KEYBOARD) {
    2788:	e3560000 	cmp	r6, #0
    278c:	0a000082 	beq	299c <on_ps2_press+0x310>
    2790:	e3033b20 	movw	r3, #15136	; 0x3b20
    2794:	e3403005 	movt	r3, #5
    2798:	e5933014 	ldr	r3, [r3, #20]
    279c:	e3c334ff 	bic	r3, r3, #-16777216	; 0xff000000
    27a0:	e3c330ff 	bic	r3, r3, #255	; 0xff
    27a4:	e3530c01 	cmp	r3, #256	; 0x100
    27a8:	1a00007b 	bne	299c <on_ps2_press+0x310>
                            turnOnLED(4);
    27ac:	e3a00004 	mov	r0, #4
    27b0:	ebfffadc 	bl	1328 <turnOnLED>
                            movePlayerRight(&PLAYER);
    27b4:	e1a00008 	mov	r0, r8
    27b8:	eb0000e4 	bl	2b50 <movePlayerRight>
    27bc:	ea000076 	b	299c <on_ps2_press+0x310>
                        }
                    } else if (GAME_STATE.MODE == TITLE) {
    27c0:	e5d4300c 	ldrb	r3, [r4, #12]
    27c4:	e3530000 	cmp	r3, #0
    27c8:	1a000005 	bne	27e4 <on_ps2_press+0x158>
                        TITLE_INDEX = (TITLE_INDEX + 1) % TITLE_SIZE;
    27cc:	e5950000 	ldr	r0, [r5]
    27d0:	e2800001 	add	r0, r0, #1
    27d4:	e5971000 	ldr	r1, [r7]
    27d8:	eb000c00 	bl	57e0 <__aeabi_idivmod>
    27dc:	e5851000 	str	r1, [r5]
    27e0:	ea00006d 	b	299c <on_ps2_press+0x310>
                    } else if (GAME_STATE.MODE == OPTIONS) {
    27e4:	e5d4300c 	ldrb	r3, [r4, #12]
    27e8:	e3530001 	cmp	r3, #1
    27ec:	1a00006a 	bne	299c <on_ps2_press+0x310>
                        cycleOptionRight();
    27f0:	ebfffe0c 	bl	2028 <cycleOptionRight>
    27f4:	ea000068 	b	299c <on_ps2_press+0x310>
                    }
                } else if (data == LEFT_ARROW) {
    27f8:	e5dd300f 	ldrb	r3, [sp, #15]
    27fc:	e353006b 	cmp	r3, #107	; 0x6b
    2800:	1a00001f 	bne	2884 <on_ps2_press+0x1f8>
                    // Left Arrow
                    if (GAME_STATE.MODE == GAME) {
    2804:	e5d4300c 	ldrb	r3, [r4, #12]
    2808:	e3530002 	cmp	r3, #2
    280c:	1a00000d 	bne	2848 <on_ps2_press+0x1bc>
                        PLAYER.move_left = !is_break;
    2810:	e2263001 	eor	r3, r6, #1
    2814:	e5c83015 	strb	r3, [r8, #21]
                        if (is_break && SETTINGS.CONTROL_SCHEME == DISCRETE && SETTINGS.INPUT_TYPE == KEYBOARD)
    2818:	e3560000 	cmp	r6, #0
    281c:	0a00005e 	beq	299c <on_ps2_press+0x310>
    2820:	e3033b20 	movw	r3, #15136	; 0x3b20
    2824:	e3403005 	movt	r3, #5
    2828:	e5933014 	ldr	r3, [r3, #20]
    282c:	e3c334ff 	bic	r3, r3, #-16777216	; 0xff000000
    2830:	e3c330ff 	bic	r3, r3, #255	; 0xff
    2834:	e3530c01 	cmp	r3, #256	; 0x100
    2838:	1a000057 	bne	299c <on_ps2_press+0x310>
                            movePlayerLeft(&PLAYER);
    283c:	e1a00008 	mov	r0, r8
    2840:	eb0000e8 	bl	2be8 <movePlayerLeft>
    2844:	ea000054 	b	299c <on_ps2_press+0x310>
                    } else if (GAME_STATE.MODE == TITLE) {
    2848:	e5d4300c 	ldrb	r3, [r4, #12]
    284c:	e3530000 	cmp	r3, #0
    2850:	1a000006 	bne	2870 <on_ps2_press+0x1e4>
                        TITLE_INDEX = (TITLE_SIZE + TITLE_INDEX - 1) % TITLE_SIZE;
    2854:	e5971000 	ldr	r1, [r7]
    2858:	e5950000 	ldr	r0, [r5]
    285c:	e0810000 	add	r0, r1, r0
    2860:	e2400001 	sub	r0, r0, #1
    2864:	eb000bdd 	bl	57e0 <__aeabi_idivmod>
    2868:	e5851000 	str	r1, [r5]
    286c:	ea00004a 	b	299c <on_ps2_press+0x310>
                    } else if (GAME_STATE.MODE == OPTIONS) {
    2870:	e5d4300c 	ldrb	r3, [r4, #12]
    2874:	e3530001 	cmp	r3, #1
    2878:	1a000047 	bne	299c <on_ps2_press+0x310>
                        cycleOptionLeft();
    287c:	ebfffe1e 	bl	20fc <cycleOptionLeft>
    2880:	ea000045 	b	299c <on_ps2_press+0x310>
                    }
                } else if (data == UP_ARROW) {
    2884:	e5dd300f 	ldrb	r3, [sp, #15]
    2888:	e3530075 	cmp	r3, #117	; 0x75
    288c:	1a000006 	bne	28ac <on_ps2_press+0x220>
                    // Up Arrow
                    if (is_break && GAME_STATE.MODE == OPTIONS) {
    2890:	e3560000 	cmp	r6, #0
    2894:	0a000040 	beq	299c <on_ps2_press+0x310>
    2898:	e5d4300c 	ldrb	r3, [r4, #12]
    289c:	e3530001 	cmp	r3, #1
    28a0:	1a00003d 	bne	299c <on_ps2_press+0x310>
                        choosePreviousOption();
    28a4:	ebfffdd3 	bl	1ff8 <choosePreviousOption>
    28a8:	ea00003b 	b	299c <on_ps2_press+0x310>
                    }
                } else if (data == DOWN_ARROW) {
    28ac:	e5dd300f 	ldrb	r3, [sp, #15]
    28b0:	e3530072 	cmp	r3, #114	; 0x72
    28b4:	1a000038 	bne	299c <on_ps2_press+0x310>
                    // Down Arrow
                    if (is_break && GAME_STATE.MODE == OPTIONS) {
    28b8:	e3560000 	cmp	r6, #0
    28bc:	0a000036 	beq	299c <on_ps2_press+0x310>
    28c0:	e5d4300c 	ldrb	r3, [r4, #12]
    28c4:	e3530001 	cmp	r3, #1
    28c8:	1a000033 	bne	299c <on_ps2_press+0x310>
                        chooseNextOption();
    28cc:	ebfffdbe 	bl	1fcc <chooseNextOption>
    28d0:	ea000031 	b	299c <on_ps2_press+0x310>
                    }
                }
            } else {
                // Non Extended Key Press
                bool is_break = false;
                if (data == BREAK) {
    28d4:	e5dd300f 	ldrb	r3, [sp, #15]
    28d8:	e35300f0 	cmp	r3, #240	; 0xf0
    28dc:	1a000034 	bne	29b4 <on_ps2_press+0x328>
                    // Is Break
                    is_break = true;
                    data = *ps2_base & 0xFF;
    28e0:	e3a03000 	mov	r3, #0
    28e4:	e34f3f20 	movt	r3, #65312	; 0xff20
    28e8:	e5933100 	ldr	r3, [r3, #256]	; 0x100
    28ec:	e6ef3073 	uxtb	r3, r3
    28f0:	e5cd300f 	strb	r3, [sp, #15]
                }
                if (data == ENTER_KEY) {
    28f4:	e5dd300f 	ldrb	r3, [sp, #15]
    28f8:	e353005a 	cmp	r3, #90	; 0x5a
    28fc:	1a000030 	bne	29c4 <on_ps2_press+0x338>
                    // Enter Key
                    if (is_break && GAME_STATE.MODE == TITLE) {
    2900:	e5d4300c 	ldrb	r3, [r4, #12]
    2904:	e3530000 	cmp	r3, #0
    2908:	1a000023 	bne	299c <on_ps2_press+0x310>
                        if (TITLE_INDEX == 0) {
    290c:	e5953000 	ldr	r3, [r5]
    2910:	e3530000 	cmp	r3, #0
    2914:	1a000004 	bne	292c <on_ps2_press+0x2a0>
                            GAME_STATE.MODE = GAME;
    2918:	e3a03002 	mov	r3, #2
    291c:	e5c4300c 	strb	r3, [r4, #12]
                            INIT_GAME_REQUEST = true;
    2920:	e3a03001 	mov	r3, #1
    2924:	e5ca3000 	strb	r3, [r10]
    2928:	ea00001b 	b	299c <on_ps2_press+0x310>
                        } else if (TITLE_INDEX == 1) {
    292c:	e5953000 	ldr	r3, [r5]
    2930:	e3530001 	cmp	r3, #1
                            GAME_STATE.MODE = OPTIONS;
    2934:	05c4300c 	strbeq	r3, [r4, #12]
                            OPTIONS_INDEX = 0;
    2938:	03a03000 	moveq	r3, #0
    293c:	05893000 	streq	r3, [r9]
    2940:	ea000015 	b	299c <on_ps2_press+0x310>
                        }
                    }
                } else if (data == SPACE_KEY) {
                    // Space Key
                    if (is_break && GAME_STATE.MODE == TITLE)
    2944:	e5d4300c 	ldrb	r3, [r4, #12]
    2948:	e3530000 	cmp	r3, #0
                        GAME_STATE.MODE = GAME;
    294c:	03a03002 	moveq	r3, #2
    2950:	05c4300c 	strbeq	r3, [r4, #12]
    2954:	ea000010 	b	299c <on_ps2_press+0x310>
                } else if (data == ESC) {
    2958:	e5dd300f 	ldrb	r3, [sp, #15]
    295c:	e3530076 	cmp	r3, #118	; 0x76
    2960:	1a00000d 	bne	299c <on_ps2_press+0x310>
                    // Escape Key
                    if (is_break && GAME_STATE.MODE == GAME) {
    2964:	e3520000 	cmp	r2, #0
    2968:	0a00000b 	beq	299c <on_ps2_press+0x310>
    296c:	e5d4300c 	ldrb	r3, [r4, #12]
    2970:	e3530002 	cmp	r3, #2
                        GAME_STATE.MODE = TITLE;
    2974:	03a03000 	moveq	r3, #0
    2978:	05c4300c 	strbeq	r3, [r4, #12]
                        TITLE_INDEX = 0;
    297c:	05853000 	streq	r3, [r5]
                    // Space Key
                    if (is_break && GAME_STATE.MODE == TITLE)
                        GAME_STATE.MODE = GAME;
                } else if (data == ESC) {
                    // Escape Key
                    if (is_break && GAME_STATE.MODE == GAME) {
    2980:	0a000005 	beq	299c <on_ps2_press+0x310>
                        GAME_STATE.MODE = TITLE;
                        TITLE_INDEX = 0;
                    } else if (is_break && GAME_STATE.MODE == OPTIONS) {
    2984:	e5d4300c 	ldrb	r3, [r4, #12]
    2988:	e3530001 	cmp	r3, #1
                        GAME_STATE.MODE = TITLE;
    298c:	03a03000 	moveq	r3, #0
    2990:	05c4300c 	strbeq	r3, [r4, #12]
                        TITLE_INDEX = 1;
    2994:	03a03001 	moveq	r3, #1
    2998:	05853000 	streq	r3, [r5]
    int RVALID;
    volatile char data;

    //RVALID = *ps2_base & 0x8000;
    //if (RVALID) {
        while (*(ps2_base+1) & 0b100000000) {
    299c:	e3a03000 	mov	r3, #0
    29a0:	e34f3f20 	movt	r3, #65312	; 0xff20
    29a4:	e5933104 	ldr	r3, [r3, #260]	; 0x104
    29a8:	e3130c01 	tst	r3, #256	; 0x100
    29ac:	1affff45 	bne	26c8 <on_ps2_press+0x3c>
    29b0:	ea00000d 	b	29ec <on_ps2_press+0x360>
                if (data == BREAK) {
                    // Is Break
                    is_break = true;
                    data = *ps2_base & 0xFF;
                }
                if (data == ENTER_KEY) {
    29b4:	e5dd300f 	ldrb	r3, [sp, #15]
    29b8:	e353005a 	cmp	r3, #90	; 0x5a
    29bc:	1a000005 	bne	29d8 <on_ps2_press+0x34c>
    29c0:	eafffff5 	b	299c <on_ps2_press+0x310>
                        } else if (TITLE_INDEX == 1) {
                            GAME_STATE.MODE = OPTIONS;
                            OPTIONS_INDEX = 0;
                        }
                    }
                } else if (data == SPACE_KEY) {
    29c4:	e5dd300f 	ldrb	r3, [sp, #15]
    29c8:	e3530029 	cmp	r3, #41	; 0x29
            } else {
                // Non Extended Key Press
                bool is_break = false;
                if (data == BREAK) {
                    // Is Break
                    is_break = true;
    29cc:	13a02001 	movne	r2, #1
                        } else if (TITLE_INDEX == 1) {
                            GAME_STATE.MODE = OPTIONS;
                            OPTIONS_INDEX = 0;
                        }
                    }
                } else if (data == SPACE_KEY) {
    29d0:	1affffe0 	bne	2958 <on_ps2_press+0x2cc>
    29d4:	eaffffda 	b	2944 <on_ps2_press+0x2b8>
    29d8:	e5dd300f 	ldrb	r3, [sp, #15]
    29dc:	e3530029 	cmp	r3, #41	; 0x29
                        chooseNextOption();
                    }
                }
            } else {
                // Non Extended Key Press
                bool is_break = false;
    29e0:	13a02000 	movne	r2, #0
                        } else if (TITLE_INDEX == 1) {
                            GAME_STATE.MODE = OPTIONS;
                            OPTIONS_INDEX = 0;
                        }
                    }
                } else if (data == SPACE_KEY) {
    29e4:	1affffdb 	bne	2958 <on_ps2_press+0x2cc>
    29e8:	eaffffeb 	b	299c <on_ps2_press+0x310>
                    }
                }
            }
        }
    //}
    29ec:	e28dd014 	add	sp, sp, #20
    29f0:	e8bd8ff0 	pop	{r4, r5, r6, r7, r8, r9, r10, r11, pc}

000029f4 <__cs3_isr_irq>:
void __attribute__((interrupt)) __cs3_isr_fiq() {
    while (true);
}

// IRQ Interrupt Handler
void __attribute__((interrupt)) __cs3_isr_irq() {
    29f4:	e24ee004 	sub	lr, lr, #4
    29f8:	e92d500f 	push	{r0, r1, r2, r3, r12, lr}
    29fc:	e24dd008 	sub	sp, sp, #8
    volatile unsigned int *base = (unsigned int *) MPCORE_GIC_CPUIF;
    volatile unsigned int interrupt_id = *(base + 3);
    2a00:	e3e03a13 	mvn	r3, #77824	; 0x13000
    2a04:	e5133ef3 	ldr	r3, [r3, #-3827]	; 0xfffff10d
    2a08:	e58d3004 	str	r3, [sp, #4]

    // Find interrupt
    if (interrupt_id == KEYS_IRQ) {
    2a0c:	e59d3004 	ldr	r3, [sp, #4]
    2a10:	e3530049 	cmp	r3, #73	; 0x49
    2a14:	1a000001 	bne	2a20 <__cs3_isr_irq+0x2c>
        // Key Interrupt
        on_key_press();
    2a18:	ebfffe10 	bl	2260 <on_key_press>
    2a1c:	ea000008 	b	2a44 <__cs3_isr_irq+0x50>
    } else if (interrupt_id == MPCORE_PRIV_TIMER_IRQ) {
    2a20:	e59d3004 	ldr	r3, [sp, #4]
    2a24:	e353001d 	cmp	r3, #29
    2a28:	1a000001 	bne	2a34 <__cs3_isr_irq+0x40>
        // 200MHz Timer Interrupt
        on_priv_timer_tick();
    2a2c:	ebfffed8 	bl	2594 <on_priv_timer_tick>
    2a30:	ea000003 	b	2a44 <__cs3_isr_irq+0x50>
    } else if (interrupt_id == PS2_IRQ) {
    2a34:	e59d3004 	ldr	r3, [sp, #4]
    2a38:	e353004f 	cmp	r3, #79	; 0x4f
    2a3c:	1a000000 	bne	2a44 <__cs3_isr_irq+0x50>
        // PS2 Interrupt
        on_ps2_press();
    2a40:	ebffff11 	bl	268c <on_ps2_press>
    }

    // Clear the interrupt
    *(base+4) = interrupt_id;
    2a44:	e59d2004 	ldr	r2, [sp, #4]
    2a48:	e3e03a13 	mvn	r3, #77824	; 0x13000
    2a4c:	e5032eef 	str	r2, [r3, #-3823]	; 0xfffff111
}
    2a50:	e28dd008 	add	sp, sp, #8
    2a54:	e8fd900f 	ldm	sp!, {r0, r1, r2, r3, r12, pc}^

00002a58 <enable_interrupt>:

    volatile unsigned int * dist_base = (unsigned int *) MPCORE_GIC_DIST;
    *dist_base = 1;
}

void enable_interrupt(int interrupt_id) {
    2a58:	e52d4004 	push	{r4}		; (str r4, [sp, #-4]!)
    2a5c:	e24dd024 	sub	sp, sp, #36	; 0x24
    // ICDISER Config
    volatile int reg_offset = (interrupt_id / 32) * 4;
    2a60:	e280301f 	add	r3, r0, #31
    2a64:	e3500000 	cmp	r0, #0
    2a68:	a1a03000 	movge	r3, r0
    2a6c:	e1a032c3 	asr	r3, r3, #5
    2a70:	e1a03103 	lsl	r3, r3, #2
    2a74:	e58d301c 	str	r3, [sp, #28]
    volatile unsigned int dist_addr = MPCORE_GIC_DIST;
    2a78:	e3a03a0d 	mov	r3, #53248	; 0xd000
    2a7c:	e34f3ffe 	movt	r3, #65534	; 0xfffe
    2a80:	e58d3018 	str	r3, [sp, #24]
    volatile unsigned int icdiser = dist_addr + ICDISER;
    2a84:	e59d3018 	ldr	r3, [sp, #24]
    2a88:	e2833c01 	add	r3, r3, #256	; 0x100
    2a8c:	e58d3014 	str	r3, [sp, #20]
    volatile unsigned int * addr = (unsigned int *) (icdiser + reg_offset);
    2a90:	e59d2014 	ldr	r2, [sp, #20]
    2a94:	e59d101c 	ldr	r1, [sp, #28]

    volatile unsigned int value = interrupt_id & 0x1F;
    2a98:	e200301f 	and	r3, r0, #31
    2a9c:	e58d3010 	str	r3, [sp, #16]
    value = 1 << value;
    2aa0:	e59dc010 	ldr	r12, [sp, #16]
    2aa4:	e3a03001 	mov	r3, #1
    2aa8:	e1a0cc13 	lsl	r12, r3, r12
    2aac:	e58dc010 	str	r12, [sp, #16]

    volatile unsigned int reg_value = *addr;
    2ab0:	e791c002 	ldr	r12, [r1, r2]
    2ab4:	e58dc00c 	str	r12, [sp, #12]
    reg_value = reg_value | value;
    2ab8:	e59dc00c 	ldr	r12, [sp, #12]
    2abc:	e59d4010 	ldr	r4, [sp, #16]
    2ac0:	e184c00c 	orr	r12, r4, r12
    2ac4:	e58dc00c 	str	r12, [sp, #12]
    *addr = reg_value;
    2ac8:	e59dc00c 	ldr	r12, [sp, #12]
    2acc:	e781c002 	str	r12, [r1, r2]

    // ICDIPTR Config
    reg_offset = (interrupt_id/4) * 4;
    2ad0:	e2802003 	add	r2, r0, #3
    2ad4:	a1a02000 	movge	r2, r0
    2ad8:	e3c22003 	bic	r2, r2, #3
    2adc:	e58d201c 	str	r2, [sp, #28]
    volatile unsigned int icdiptr = dist_addr + ICDIPTR;
    2ae0:	e59d2018 	ldr	r2, [sp, #24]
    2ae4:	e2822b02 	add	r2, r2, #2048	; 0x800
    2ae8:	e58d2008 	str	r2, [sp, #8]
    volatile char * addr2 = (char *) (icdiptr + reg_offset);
    2aec:	e59d2008 	ldr	r2, [sp, #8]
    2af0:	e59d101c 	ldr	r1, [sp, #28]
    2af4:	e0811002 	add	r1, r1, r2
    volatile unsigned int index = interrupt_id & 0x3;
    2af8:	e2000003 	and	r0, r0, #3
    2afc:	e58d0004 	str	r0, [sp, #4]
    char value2 = CPU0;
    addr2 += index;
    2b00:	e59d2004 	ldr	r2, [sp, #4]
    //value = value << (4 * index);
    //value = (*addr) | value;
    *addr2 = value2;
    2b04:	e7c13002 	strb	r3, [r1, r2]

    2b08:	e28dd024 	add	sp, sp, #36	; 0x24
    2b0c:	e8bd0010 	ldmfd	sp!, {r4}
    2b10:	e12fff1e 	bx	lr

00002b14 <config_gic>:
#include "config_gic.h"
#include "interrupt_ids.h"

void config_gic() {
    2b14:	e92d4008 	push	{r3, lr}
    enable_interrupt(KEYS_IRQ);
    2b18:	e3a00049 	mov	r0, #73	; 0x49
    2b1c:	ebffffcd 	bl	2a58 <enable_interrupt>
    enable_interrupt(MPCORE_PRIV_TIMER_IRQ);
    2b20:	e3a0001d 	mov	r0, #29
    2b24:	ebffffcb 	bl	2a58 <enable_interrupt>
    enable_interrupt(PS2_IRQ);
    2b28:	e3a0004f 	mov	r0, #79	; 0x4f
    2b2c:	ebffffc9 	bl	2a58 <enable_interrupt>

    volatile unsigned int * cpu_base = (unsigned int *) MPCORE_GIC_CPUIF;
    *(cpu_base + 1) = 0xFFFF;
    2b30:	e3e02a13 	mvn	r2, #77824	; 0x13000
    2b34:	e30f3fff 	movw	r3, #65535	; 0xffff
    2b38:	e5023efb 	str	r3, [r2, #-3835]	; 0xfffff105
    *cpu_base = 1;
    2b3c:	e3a03001 	mov	r3, #1
    2b40:	e5023eff 	str	r3, [r2, #-3839]	; 0xfffff101

    volatile unsigned int * dist_base = (unsigned int *) MPCORE_GIC_DIST;
    *dist_base = 1;
    2b44:	e3e02a12 	mvn	r2, #73728	; 0x12000
    2b48:	e5023fff 	str	r3, [r2, #-4095]	; 0xfffff001
    2b4c:	e8bd8008 	pop	{r3, pc}

00002b50 <movePlayerRight>:
        if (player->move_right)
            movePlayerRight(player);
    }
}

void movePlayerRight(Player* player) {
    2b50:	e92d4038 	push	{r3, r4, r5, lr}
    2b54:	e1a04000 	mov	r4, r0
    if (!GAME_STATE.RUN)
    2b58:	e3033b3c 	movw	r3, #15164	; 0x3b3c
    2b5c:	e3403005 	movt	r3, #5
    2b60:	e5d33000 	ldrb	r3, [r3]
    2b64:	e3530000 	cmp	r3, #0
    2b68:	08bd8038 	popeq	{r3, r4, r5, pc}
        return;
    if (SETTINGS.CONTROL_SCHEME == DISCRETE)
    2b6c:	e3033b20 	movw	r3, #15136	; 0x3b20
    2b70:	e3403005 	movt	r3, #5
    2b74:	e5d33016 	ldrb	r3, [r3, #22]
    2b78:	e3530000 	cmp	r3, #0
    2b7c:	1a000009 	bne	2ba8 <movePlayerRight+0x58>
        player->section = (player->section + 1) % 6;
    2b80:	e5903000 	ldr	r3, [r0]
    2b84:	e2833001 	add	r3, r3, #1
    2b88:	e30a2aab 	movw	r2, #43691	; 0xaaab
    2b8c:	e3422aaa 	movt	r2, #10922	; 0x2aaa
    2b90:	e0c21392 	smull	r1, r2, r2, r3
    2b94:	e0422fc3 	sub	r2, r2, r3, asr #31
    2b98:	e0822082 	add	r2, r2, r2, lsl #1
    2b9c:	e0433082 	sub	r3, r3, r2, lsl #1
    2ba0:	e5803000 	str	r3, [r0]
    2ba4:	e8bd8038 	pop	{r3, r4, r5, pc}
    else {
        player->rotation += player->speed;
    2ba8:	e590000c 	ldr	r0, [r0, #12]
    2bac:	e5941010 	ldr	r1, [r4, #16]
    2bb0:	eb000dd4 	bl	6308 <__addsf3>
    2bb4:	e1a05000 	mov	r5, r0
        if (player->rotation >= 360)
    2bb8:	e3a01000 	mov	r1, #0
    2bbc:	e34413b4 	movt	r1, #17332	; 0x43b4
    2bc0:	eb000f6f 	bl	6984 <__aeabi_fcmpge>
    2bc4:	e3500000 	cmp	r0, #0
    if (!GAME_STATE.RUN)
        return;
    if (SETTINGS.CONTROL_SCHEME == DISCRETE)
        player->section = (player->section + 1) % 6;
    else {
        player->rotation += player->speed;
    2bc8:	0584500c 	streq	r5, [r4, #12]
        if (player->rotation >= 360)
    2bcc:	08bd8038 	popeq	{r3, r4, r5, pc}
            player->rotation -= 360;
    2bd0:	e1a00005 	mov	r0, r5
    2bd4:	e3a01000 	mov	r1, #0
    2bd8:	e34413b4 	movt	r1, #17332	; 0x43b4
    2bdc:	eb000dc8 	bl	6304 <__aeabi_fsub>
    2be0:	e584000c 	str	r0, [r4, #12]
    2be4:	e8bd8038 	pop	{r3, r4, r5, pc}

00002be8 <movePlayerLeft>:
    }
}

void movePlayerLeft(Player* player) {
    2be8:	e92d4038 	push	{r3, r4, r5, lr}
    2bec:	e1a04000 	mov	r4, r0
    if (!GAME_STATE.RUN)
    2bf0:	e3033b3c 	movw	r3, #15164	; 0x3b3c
    2bf4:	e3403005 	movt	r3, #5
    2bf8:	e5d33000 	ldrb	r3, [r3]
    2bfc:	e3530000 	cmp	r3, #0
    2c00:	08bd8038 	popeq	{r3, r4, r5, pc}
        return;
    if (SETTINGS.CONTROL_SCHEME == DISCRETE) {
    2c04:	e3033b20 	movw	r3, #15136	; 0x3b20
    2c08:	e3403005 	movt	r3, #5
    2c0c:	e5d33016 	ldrb	r3, [r3, #22]
    2c10:	e3530000 	cmp	r3, #0
    2c14:	1a000005 	bne	2c30 <movePlayerLeft+0x48>
        if (player->section == 0)
    2c18:	e5903000 	ldr	r3, [r0]
    2c1c:	e3530000 	cmp	r3, #0
            player->section = 5;
    2c20:	03a03005 	moveq	r3, #5
        else
            player->section--;
    2c24:	12433001 	subne	r3, r3, #1
    2c28:	e5803000 	str	r3, [r0]
    2c2c:	e8bd8038 	pop	{r3, r4, r5, pc}
    } else {
        player->rotation -= player->speed;
    2c30:	e590000c 	ldr	r0, [r0, #12]
    2c34:	e5941010 	ldr	r1, [r4, #16]
    2c38:	eb000db1 	bl	6304 <__aeabi_fsub>
    2c3c:	e1a05000 	mov	r5, r0
        if (player->rotation < 0)
    2c40:	e3a01000 	mov	r1, #0
    2c44:	eb000f42 	bl	6954 <__aeabi_fcmplt>
    2c48:	e3500000 	cmp	r0, #0
        if (player->section == 0)
            player->section = 5;
        else
            player->section--;
    } else {
        player->rotation -= player->speed;
    2c4c:	0584500c 	streq	r5, [r4, #12]
        if (player->rotation < 0)
    2c50:	08bd8038 	popeq	{r3, r4, r5, pc}
            player->rotation += 360;
    2c54:	e1a00005 	mov	r0, r5
    2c58:	e3a01000 	mov	r1, #0
    2c5c:	e34413b4 	movt	r1, #17332	; 0x43b4
    2c60:	eb000da8 	bl	6308 <__addsf3>
    2c64:	e584000c 	str	r0, [r4, #12]
    2c68:	e8bd8038 	pop	{r3, r4, r5, pc}

00002c6c <updatePlayer>:
#include "utils.h"
#include "globals.h"
#include "address_map_arm.h"
#include "defines.h"

void updatePlayer(Player* player) {
    2c6c:	e92d4010 	push	{r4, lr}
    2c70:	e1a04000 	mov	r4, r0
    // Continuous Control Scheme Only
    if (SETTINGS.CONTROL_SCHEME != CONTINUOUS) {
    2c74:	e3033b20 	movw	r3, #15136	; 0x3b20
    2c78:	e3403005 	movt	r3, #5
    2c7c:	e5d33016 	ldrb	r3, [r3, #22]
    2c80:	e3530001 	cmp	r3, #1
    2c84:	18bd8010 	popne	{r4, pc}
        //printf("!!! NOT CONTINUOUS !!!");
        //printf("ControlSheme: %d", (int) SETTINGS.CONTROL_SCHEME);
        //printf("Address: %d", (int) &SETTINGS.CONTROL_SCHEME);
        return;
    }
    if (SETTINGS.INPUT_TYPE == KEYS) {
    2c88:	e3033b20 	movw	r3, #15136	; 0x3b20
    2c8c:	e3403005 	movt	r3, #5
    2c90:	e5d33015 	ldrb	r3, [r3, #21]
    2c94:	e3530000 	cmp	r3, #0
    2c98:	1a00000c 	bne	2cd0 <updatePlayer+0x64>
        volatile int *keys = (int *) KEY_BASE;
        if (*keys & KEY0) {
    2c9c:	e34f3f20 	movt	r3, #65312	; 0xff20
    2ca0:	e5933050 	ldr	r3, [r3, #80]	; 0x50
    2ca4:	e3130001 	tst	r3, #1
    2ca8:	0a000001 	beq	2cb4 <updatePlayer+0x48>
            // Key 0 held
            movePlayerRight(player);
    2cac:	ebffffa7 	bl	2b50 <movePlayerRight>
    2cb0:	e8bd8010 	pop	{r4, pc}
        } else if (*keys & KEY1) {
    2cb4:	e3a03000 	mov	r3, #0
    2cb8:	e34f3f20 	movt	r3, #65312	; 0xff20
    2cbc:	e5933050 	ldr	r3, [r3, #80]	; 0x50
    2cc0:	e3130002 	tst	r3, #2
    2cc4:	08bd8010 	popeq	{r4, pc}
            // Key 1 held
            movePlayerLeft(player);
    2cc8:	ebffffc6 	bl	2be8 <movePlayerLeft>
    2ccc:	e8bd8010 	pop	{r4, pc}
        }
    } else if (SETTINGS.INPUT_TYPE == KEYBOARD) {
    2cd0:	e3530001 	cmp	r3, #1
    2cd4:	18bd8010 	popne	{r4, pc}
        if (player->move_right && player->move_left)
    2cd8:	e5d03014 	ldrb	r3, [r0, #20]
    2cdc:	e3530000 	cmp	r3, #0
    2ce0:	0a000003 	beq	2cf4 <updatePlayer+0x88>
    2ce4:	e5d03015 	ldrb	r3, [r0, #21]
    2ce8:	e3530000 	cmp	r3, #0
    2cec:	18bd8010 	popne	{r4, pc}
    2cf0:	ea000006 	b	2d10 <updatePlayer+0xa4>
            return;
        if (player->move_left)
    2cf4:	e5d03015 	ldrb	r3, [r0, #21]
    2cf8:	e3530000 	cmp	r3, #0
    2cfc:	08bd8010 	popeq	{r4, pc}
            movePlayerLeft(player);
    2d00:	ebffffb8 	bl	2be8 <movePlayerLeft>
        if (player->move_right)
    2d04:	e5d43014 	ldrb	r3, [r4, #20]
    2d08:	e3530000 	cmp	r3, #0
    2d0c:	08bd8010 	popeq	{r4, pc}
            movePlayerRight(player);
    2d10:	e1a00004 	mov	r0, r4
    2d14:	ebffff8d 	bl	2b50 <movePlayerRight>
    2d18:	e8bd8010 	pop	{r4, pc}

00002d1c <isPlayerHit>:
            return true;
    }
    return false;
}

bool isPlayerHit(Player player, Hexagon hex) {
    2d1c:	e24dd010 	sub	sp, sp, #16
    2d20:	e92d40f8 	push	{r3, r4, r5, r6, r7, lr}
    2d24:	e28dc014 	add	r12, sp, #20
    2d28:	e98c000f 	stmib	r12, {r0, r1, r2, r3}
    2d2c:	e59d00c0 	ldr	r0, [sp, #192]	; 0xc0
    if (SETTINGS.CONTROL_SCHEME == DISCRETE && player.section == hex.missing_segment)
    2d30:	e3033b20 	movw	r3, #15136	; 0x3b20
    2d34:	e3403005 	movt	r3, #5
    2d38:	e5d32016 	ldrb	r2, [r3, #22]
    2d3c:	e3520000 	cmp	r2, #0
    2d40:	1a000003 	bne	2d54 <isPlayerHit+0x38>
    2d44:	e59d3018 	ldr	r3, [sp, #24]
    2d48:	e1530000 	cmp	r3, r0
        return false;
    2d4c:	03a00000 	moveq	r0, #0
    }
    return false;
}

bool isPlayerHit(Player player, Hexagon hex) {
    if (SETTINGS.CONTROL_SCHEME == DISCRETE && player.section == hex.missing_segment)
    2d50:	0a00006e 	beq	2f10 <isPlayerHit+0x1f4>
        return false;

    int playerBottom = ORIGIN_PADDING + PLAYER_PADDING;
    int playerTop = playerBottom + player.height;

    int hexTop = hex.y;
    2d54:	e59d30c4 	ldr	r3, [sp, #196]	; 0xc4
bool isPlayerHit(Player player, Hexagon hex) {
    if (SETTINGS.CONTROL_SCHEME == DISCRETE && player.section == hex.missing_segment)
        return false;

    int playerBottom = ORIGIN_PADDING + PLAYER_PADDING;
    int playerTop = playerBottom + player.height;
    2d58:	e59dc01c 	ldr	r12, [sp, #28]
    2d5c:	e28cc00f 	add	r12, r12, #15

    int hexTop = hex.y;
    int hexBottom = 1 + hexTop - hex.height;
    2d60:	e2834001 	add	r4, r3, #1
    2d64:	e59d10c8 	ldr	r1, [sp, #200]	; 0xc8
    2d68:	e0611004 	rsb	r1, r1, r4

    if (hexBottom >= playerTop)
    2d6c:	e15c0001 	cmp	r12, r1
        return false;
    2d70:	d3a00000 	movle	r0, #0
    int playerTop = playerBottom + player.height;

    int hexTop = hex.y;
    int hexBottom = 1 + hexTop - hex.height;

    if (hexBottom >= playerTop)
    2d74:	da000065 	ble	2f10 <isPlayerHit+0x1f4>
        return false;
    if (hexTop <= playerBottom)
    2d78:	e353000f 	cmp	r3, #15
        return false;
    2d7c:	d3a00000 	movle	r0, #0
    int hexTop = hex.y;
    int hexBottom = 1 + hexTop - hex.height;

    if (hexBottom >= playerTop)
        return false;
    if (hexTop <= playerBottom)
    2d80:	da000062 	ble	2f10 <isPlayerHit+0x1f4>
        return false;

    if (SETTINGS.CONTROL_SCHEME == DISCRETE)
    2d84:	e3520000 	cmp	r2, #0
        return true;
    2d88:	03a00001 	moveq	r0, #1
    if (hexBottom >= playerTop)
        return false;
    if (hexTop <= playerBottom)
        return false;

    if (SETTINGS.CONTROL_SCHEME == DISCRETE)
    2d8c:	0a00005f 	beq	2f10 <isPlayerHit+0x1f4>
        return true;

    float seg_x = (ROTATION_ANGLE * hex.missing_segment + hex.rotation);
    2d90:	e0600200 	rsb	r0, r0, r0, lsl #4
    2d94:	e1a00100 	lsl	r0, r0, #2
    2d98:	eb000dcb 	bl	64cc <__aeabi_i2f>
    2d9c:	e59d10d0 	ldr	r1, [sp, #208]	; 0xd0
    2da0:	eb000d58 	bl	6308 <__addsf3>
    2da4:	e1a04000 	mov	r4, r0
    if (seg_x >= 360)
    2da8:	e3a01000 	mov	r1, #0
    2dac:	e34413b4 	movt	r1, #17332	; 0x43b4
    2db0:	eb000ef3 	bl	6984 <__aeabi_fcmpge>
    2db4:	e3500000 	cmp	r0, #0
    2db8:	0a000004 	beq	2dd0 <isPlayerHit+0xb4>
        seg_x -= 360;
    2dbc:	e1a00004 	mov	r0, r4
    2dc0:	e3a01000 	mov	r1, #0
    2dc4:	e34413b4 	movt	r1, #17332	; 0x43b4
    2dc8:	eb000d4d 	bl	6304 <__aeabi_fsub>
    2dcc:	e1a04000 	mov	r4, r0
    float seg_width = (ROTATION_ANGLE / 2) - 5;

    float seg_left = seg_x - seg_width;
    2dd0:	e1a00004 	mov	r0, r4
    2dd4:	e3a01000 	mov	r1, #0
    2dd8:	e34411c8 	movt	r1, #16840	; 0x41c8
    2ddc:	eb000d48 	bl	6304 <__aeabi_fsub>
    2de0:	e1a06000 	mov	r6, r0
    bool is_seg_broken = false;
    if (seg_left < 0) {
    2de4:	e3a01000 	mov	r1, #0
    2de8:	eb000ed9 	bl	6954 <__aeabi_fcmplt>
    2dec:	e3500000 	cmp	r0, #0
    if (seg_x >= 360)
        seg_x -= 360;
    float seg_width = (ROTATION_ANGLE / 2) - 5;

    float seg_left = seg_x - seg_width;
    bool is_seg_broken = false;
    2df0:	03a07000 	moveq	r7, #0
    if (seg_left < 0) {
    2df4:	0a000006 	beq	2e14 <isPlayerHit+0xf8>
        seg_left += 360;
    2df8:	e1a00006 	mov	r0, r6
    2dfc:	e3a01000 	mov	r1, #0
    2e00:	e34413b4 	movt	r1, #17332	; 0x43b4
    2e04:	eb000d3f 	bl	6308 <__addsf3>
    2e08:	e1a06000 	mov	r6, r0
        is_seg_broken = true;
    2e0c:	e3a07001 	mov	r7, #1
    2e10:	eaffffff 	b	2e14 <isPlayerHit+0xf8>
    }
    float seg_right = seg_x + seg_width;
    2e14:	e1a00004 	mov	r0, r4
    2e18:	e3a01000 	mov	r1, #0
    2e1c:	e34411c8 	movt	r1, #16840	; 0x41c8
    2e20:	eb000d38 	bl	6308 <__addsf3>
    2e24:	e1a05000 	mov	r5, r0
    if (seg_right >= 360) {
    2e28:	e3a01000 	mov	r1, #0
    2e2c:	e34413b4 	movt	r1, #17332	; 0x43b4
    2e30:	eb000ed3 	bl	6984 <__aeabi_fcmpge>
    2e34:	e3500000 	cmp	r0, #0
    2e38:	0a000006 	beq	2e58 <isPlayerHit+0x13c>
        seg_right -= 360;
    2e3c:	e1a00005 	mov	r0, r5
    2e40:	e3a01000 	mov	r1, #0
    2e44:	e34413b4 	movt	r1, #17332	; 0x43b4
    2e48:	eb000d2d 	bl	6304 <__aeabi_fsub>
    2e4c:	e1a05000 	mov	r5, r0
        is_seg_broken = true;
    }

    float player_x = player.rotation;
    2e50:	e59d4024 	ldr	r4, [sp, #36]	; 0x24
    2e54:	ea000002 	b	2e64 <isPlayerHit+0x148>
    2e58:	e59d4024 	ldr	r4, [sp, #36]	; 0x24
    if (is_seg_broken) {
    2e5c:	e3570000 	cmp	r7, #0
    2e60:	0a000019 	beq	2ecc <isPlayerHit+0x1b0>
        if (player_x > seg_left && player_x < 360)
    2e64:	e1a00006 	mov	r0, r6
    2e68:	e1a01004 	mov	r1, r4
    2e6c:	eb000eb8 	bl	6954 <__aeabi_fcmplt>
    2e70:	e3500000 	cmp	r0, #0
    2e74:	0a000006 	beq	2e94 <isPlayerHit+0x178>
    2e78:	e1a00004 	mov	r0, r4
    2e7c:	e3a01000 	mov	r1, #0
    2e80:	e34413b4 	movt	r1, #17332	; 0x43b4
    2e84:	eb000eb2 	bl	6954 <__aeabi_fcmplt>
    2e88:	e3500000 	cmp	r0, #0
            return false;
    2e8c:	13a00000 	movne	r0, #0
        is_seg_broken = true;
    }

    float player_x = player.rotation;
    if (is_seg_broken) {
        if (player_x > seg_left && player_x < 360)
    2e90:	1a00001e 	bne	2f10 <isPlayerHit+0x1f4>
            return false;
        if (player_x >= 0 && player_x < seg_right)
    2e94:	e1a00004 	mov	r0, r4
    2e98:	e3a01000 	mov	r1, #0
    2e9c:	eb000eb8 	bl	6984 <__aeabi_fcmpge>
    2ea0:	e3500000 	cmp	r0, #0
    2ea4:	0a000017 	beq	2f08 <isPlayerHit+0x1ec>
    2ea8:	e3a06001 	mov	r6, #1
    2eac:	e1a00005 	mov	r0, r5
    2eb0:	e1a01004 	mov	r1, r4
    2eb4:	eb000eb8 	bl	699c <__aeabi_fcmpgt>
    2eb8:	e3500000 	cmp	r0, #0
    2ebc:	03a06000 	moveq	r6, #0
    2ec0:	e2260001 	eor	r0, r6, #1
    2ec4:	e6ef0070 	uxtb	r0, r0
    2ec8:	ea000010 	b	2f10 <isPlayerHit+0x1f4>
            return false;
        return true;
    }
    if (player_x > seg_left && player_x < seg_right)
    2ecc:	e1a00006 	mov	r0, r6
    2ed0:	e1a01004 	mov	r1, r4
    2ed4:	eb000e9e 	bl	6954 <__aeabi_fcmplt>
    2ed8:	e3500000 	cmp	r0, #0
        return false;
    return true;
    2edc:	03a00001 	moveq	r0, #1
            return false;
        if (player_x >= 0 && player_x < seg_right)
            return false;
        return true;
    }
    if (player_x > seg_left && player_x < seg_right)
    2ee0:	0a00000a 	beq	2f10 <isPlayerHit+0x1f4>
    2ee4:	e3a06001 	mov	r6, #1
    2ee8:	e1a00005 	mov	r0, r5
    2eec:	e1a01004 	mov	r1, r4
    2ef0:	eb000ea9 	bl	699c <__aeabi_fcmpgt>
    2ef4:	e3500000 	cmp	r0, #0
    2ef8:	03a06000 	moveq	r6, #0
    2efc:	e2260001 	eor	r0, r6, #1
    2f00:	e6ef0070 	uxtb	r0, r0
    2f04:	ea000001 	b	2f10 <isPlayerHit+0x1f4>
    if (is_seg_broken) {
        if (player_x > seg_left && player_x < 360)
            return false;
        if (player_x >= 0 && player_x < seg_right)
            return false;
        return true;
    2f08:	e3a00001 	mov	r0, #1
    2f0c:	eaffffff 	b	2f10 <isPlayerHit+0x1f4>
    }
    if (player_x > seg_left && player_x < seg_right)
        return false;
    return true;
}
    2f10:	e8bd40f8 	pop	{r3, r4, r5, r6, r7, lr}
    2f14:	e28dd010 	add	sp, sp, #16
    2f18:	e12fff1e 	bx	lr

00002f1c <checkPlayerHit>:
    }

}


bool checkPlayerHit(Player player) {
    2f1c:	e24dd010 	sub	sp, sp, #16
    2f20:	e92d40f0 	push	{r4, r5, r6, r7, lr}
    2f24:	e24dd0bc 	sub	sp, sp, #188	; 0xbc
    2f28:	e28dc0cc 	add	r12, sp, #204	; 0xcc
    2f2c:	e98c000f 	stmib	r12, {r0, r1, r2, r3}
    if (!SETTINGS.HIT_DETECT)
    2f30:	e3033b20 	movw	r3, #15136	; 0x3b20
    2f34:	e3403005 	movt	r3, #5
    2f38:	e5d33001 	ldrb	r3, [r3, #1]
    2f3c:	e3530000 	cmp	r3, #0
        return false;
    2f40:	03a00000 	moveq	r0, #0

}


bool checkPlayerHit(Player player) {
    if (!SETTINGS.HIT_DETECT)
    2f44:	0a000015 	beq	2fa0 <checkPlayerHit+0x84>
    2f48:	e3a04000 	mov	r4, #0
        return false;
    int i;
    for (i = 0; i < SIZE; ++i) {
        if (isPlayerHit(player, HEXAGONS[i]))
    2f4c:	e3036c6c 	movw	r6, #15468	; 0x3c6c
    2f50:	e3406005 	movt	r6, #5
    2f54:	e3a050ac 	mov	r5, #172	; 0xac
    2f58:	e28d7008 	add	r7, sp, #8
    2f5c:	e1a00007 	mov	r0, r7
    2f60:	e0216495 	mla	r1, r5, r4, r6
    2f64:	e1a02005 	mov	r2, r5
    2f68:	eb000ec1 	bl	6a74 <memcpy>
    2f6c:	e28d30e0 	add	r3, sp, #224	; 0xe0
    2f70:	e8930003 	ldm	r3, {r0, r1}
    2f74:	e88d0003 	stm	sp, {r0, r1}
    2f78:	e28dc0cc 	add	r12, sp, #204	; 0xcc
    2f7c:	e99c000f 	ldmib	r12, {r0, r1, r2, r3}
    2f80:	ebffff65 	bl	2d1c <isPlayerHit>
    2f84:	e3500000 	cmp	r0, #0
    2f88:	1a000003 	bne	2f9c <checkPlayerHit+0x80>

bool checkPlayerHit(Player player) {
    if (!SETTINGS.HIT_DETECT)
        return false;
    int i;
    for (i = 0; i < SIZE; ++i) {
    2f8c:	e2844001 	add	r4, r4, #1
    2f90:	e3540003 	cmp	r4, #3
    2f94:	1afffff0 	bne	2f5c <checkPlayerHit+0x40>
    2f98:	ea000000 	b	2fa0 <checkPlayerHit+0x84>
        if (isPlayerHit(player, HEXAGONS[i]))
            return true;
    2f9c:	e3a00001 	mov	r0, #1
    }
    return false;
}
    2fa0:	e28dd0bc 	add	sp, sp, #188	; 0xbc
    2fa4:	e8bd40f0 	pop	{r4, r5, r6, r7, lr}
    2fa8:	e28dd010 	add	sp, sp, #16
    2fac:	e12fff1e 	bx	lr

00002fb0 <draw_player>:
        return false;
    return true;
}


void draw_player(Player player) {
    2fb0:	e24dd010 	sub	sp, sp, #16
    2fb4:	e92d45f0 	push	{r4, r5, r6, r7, r8, r10, lr}
    2fb8:	e24dd01c 	sub	sp, sp, #28
    2fbc:	e28dc034 	add	r12, sp, #52	; 0x34
    2fc0:	e98c000f 	stmib	r12, {r0, r1, r2, r3}
    2fc4:	e59d6038 	ldr	r6, [sp, #56]	; 0x38
    int h = player.height;
    2fc8:	e59d703c 	ldr	r7, [sp, #60]	; 0x3c
    int x = ORIGIN_X;
    int y = 1 + ORIGIN_Y - ORIGIN_PADDING - PLAYER_PADDING - h;
    2fcc:	e2678069 	rsb	r8, r7, #105	; 0x69
    short int color = player.color;
    2fd0:	e1dda4b0 	ldrh	r10, [sp, #64]	; 0x40
    float rotation = GAME_STATE.SCREEN_ROTATION_ANGLE;
    2fd4:	e3033b3c 	movw	r3, #15164	; 0x3b3c
    2fd8:	e3403005 	movt	r3, #5
    2fdc:	e5935008 	ldr	r5, [r3, #8]
    if (SETTINGS.CONTROL_SCHEME == CONTINUOUS)
    2fe0:	e3033b20 	movw	r3, #15136	; 0x3b20
    2fe4:	e3403005 	movt	r3, #5
    2fe8:	e5d33016 	ldrb	r3, [r3, #22]
    2fec:	e3530001 	cmp	r3, #1
    2ff0:	1a000003 	bne	3004 <draw_player+0x54>
        rotation += player.rotation;
    2ff4:	e1a00005 	mov	r0, r5
    2ff8:	e59d1044 	ldr	r1, [sp, #68]	; 0x44
    2ffc:	eb000cc1 	bl	6308 <__addsf3>
    3000:	e1a05000 	mov	r5, r0
    int i,w;
    for (i=0, w=0; i<h; ++i, w += 2) {
    3004:	e3570000 	cmp	r7, #0
    3008:	da000022 	ble	3098 <draw_player+0xe8>
    300c:	e3a04000 	mov	r4, #0
        rotate(&x0, &y0, player.section);
        rotate(&x1, &y1, player.section);
        rotate2(&x0, &y0, rotation);
        rotate2(&x1, &y1, rotation);

        draw_line(x0, y0, x1, y1, color);
    3010:	e6bfa07a 	sxth	r10, r10
        return false;
    return true;
}


void draw_player(Player player) {
    3014:	e0883004 	add	r3, r8, r4
    float rotation = GAME_STATE.SCREEN_ROTATION_ANGLE;
    if (SETTINGS.CONTROL_SCHEME == CONTINUOUS)
        rotation += player.rotation;
    int i,w;
    for (i=0, w=0; i<h; ++i, w += 2) {
        int y0 = y + i, y1 = y0;
    3018:	e58d3008 	str	r3, [sp, #8]
    301c:	e58d300c 	str	r3, [sp, #12]
        int x0 = x - w/2, x1 = x + w/2;
    3020:	e7be3054 	sbfx	r3, r4, #0, #31
    3024:	e263209f 	rsb	r2, r3, #159	; 0x9f
    3028:	e58d2010 	str	r2, [sp, #16]
    302c:	e283309f 	add	r3, r3, #159	; 0x9f
    3030:	e58d3014 	str	r3, [sp, #20]

        rotate(&x0, &y0, player.section);
    3034:	e28d0010 	add	r0, sp, #16
    3038:	e28d1008 	add	r1, sp, #8
    303c:	e1a02006 	mov	r2, r6
    3040:	ebfff833 	bl	1114 <rotate>
        rotate(&x1, &y1, player.section);
    3044:	e28d0014 	add	r0, sp, #20
    3048:	e28d100c 	add	r1, sp, #12
    304c:	e1a02006 	mov	r2, r6
    3050:	ebfff82f 	bl	1114 <rotate>
        rotate2(&x0, &y0, rotation);
    3054:	e28d0010 	add	r0, sp, #16
    3058:	e28d1008 	add	r1, sp, #8
    305c:	e1a02005 	mov	r2, r5
    3060:	ebfff868 	bl	1208 <rotate2>
        rotate2(&x1, &y1, rotation);
    3064:	e28d0014 	add	r0, sp, #20
    3068:	e28d100c 	add	r1, sp, #12
    306c:	e1a02005 	mov	r2, r5
    3070:	ebfff864 	bl	1208 <rotate2>

        draw_line(x0, y0, x1, y1, color);
    3074:	e58da000 	str	r10, [sp]
    3078:	e59d0010 	ldr	r0, [sp, #16]
    307c:	e59d1008 	ldr	r1, [sp, #8]
    3080:	e59d2014 	ldr	r2, [sp, #20]
    3084:	e59d300c 	ldr	r3, [sp, #12]
    3088:	ebfff8da 	bl	13f8 <draw_line>
    short int color = player.color;
    float rotation = GAME_STATE.SCREEN_ROTATION_ANGLE;
    if (SETTINGS.CONTROL_SCHEME == CONTINUOUS)
        rotation += player.rotation;
    int i,w;
    for (i=0, w=0; i<h; ++i, w += 2) {
    308c:	e2844001 	add	r4, r4, #1
    3090:	e1540007 	cmp	r4, r7
    3094:	1affffde 	bne	3014 <draw_player+0x64>
        rotate2(&x0, &y0, rotation);
        rotate2(&x1, &y1, rotation);

        draw_line(x0, y0, x1, y1, color);
    }
    3098:	e28dd01c 	add	sp, sp, #28
    309c:	e8bd45f0 	pop	{r4, r5, r6, r7, r8, r10, lr}
    30a0:	e28dd010 	add	sp, sp, #16
    30a4:	e12fff1e 	bx	lr

000030a8 <cos>:
    30a8:	e92d4030 	push	{r4, r5, lr}
    30ac:	e59fe0e0 	ldr	lr, [pc, #224]	; 3194 <cos+0xec>
    30b0:	e3c1c102 	bic	r12, r1, #-2147483648	; 0x80000000
    30b4:	e15c000e 	cmp	r12, lr
    30b8:	e24dd01c 	sub	sp, sp, #28
    30bc:	e1a02000 	mov	r2, r0
    30c0:	e1a03001 	mov	r3, r1
    30c4:	e1a04000 	mov	r4, r0
    30c8:	e1a05001 	mov	r5, r1
    30cc:	da000015 	ble	3128 <cos+0x80>
    30d0:	e59fe0c0 	ldr	lr, [pc, #192]	; 3198 <cos+0xf0>
    30d4:	e15c000e 	cmp	r12, lr
    30d8:	da000003 	ble	30ec <cos+0x44>
    30dc:	eb0009ca 	bl	580c <__aeabi_dsub>
    30e0:	e28dd01c 	add	sp, sp, #28
    30e4:	e8bd4030 	pop	{r4, r5, lr}
    30e8:	e12fff1e 	bx	lr
    30ec:	e28d2008 	add	r2, sp, #8
    30f0:	eb000132 	bl	35c0 <__ieee754_rem_pio2>
    30f4:	e2000003 	and	r0, r0, #3
    30f8:	e3500001 	cmp	r0, #1
    30fc:	0a000014 	beq	3154 <cos+0xac>
    3100:	e3500002 	cmp	r0, #2
    3104:	0a00000b 	beq	3138 <cos+0x90>
    3108:	e3500000 	cmp	r0, #0
    310c:	1a000018 	bne	3174 <cos+0xcc>
    3110:	e28d1008 	add	r1, sp, #8
    3114:	e8910003 	ldm	r1, {r0, r1}
    3118:	e28d3010 	add	r3, sp, #16
    311c:	e893000c 	ldm	r3, {r2, r3}
    3120:	eb0002bc 	bl	3c18 <__kernel_cos>
    3124:	eaffffed 	b	30e0 <cos+0x38>
    3128:	e3a02000 	mov	r2, #0
    312c:	e3a03000 	mov	r3, #0
    3130:	eb0002b8 	bl	3c18 <__kernel_cos>
    3134:	eaffffe9 	b	30e0 <cos+0x38>
    3138:	e28d1008 	add	r1, sp, #8
    313c:	e8910003 	ldm	r1, {r0, r1}
    3140:	e28d3010 	add	r3, sp, #16
    3144:	e893000c 	ldm	r3, {r2, r3}
    3148:	eb0002b2 	bl	3c18 <__kernel_cos>
    314c:	e2811102 	add	r1, r1, #-2147483648	; 0x80000000
    3150:	eaffffe2 	b	30e0 <cos+0x38>
    3154:	e58d0000 	str	r0, [sp]
    3158:	e28d3010 	add	r3, sp, #16
    315c:	e893000c 	ldm	r3, {r2, r3}
    3160:	e28d1008 	add	r1, sp, #8
    3164:	e8910003 	ldm	r1, {r0, r1}
    3168:	eb000662 	bl	4af8 <__kernel_sin>
    316c:	e2811102 	add	r1, r1, #-2147483648	; 0x80000000
    3170:	eaffffda 	b	30e0 <cos+0x38>
    3174:	e3a03001 	mov	r3, #1
    3178:	e58d3000 	str	r3, [sp]
    317c:	e28d1008 	add	r1, sp, #8
    3180:	e8910003 	ldm	r1, {r0, r1}
    3184:	e28d3010 	add	r3, sp, #16
    3188:	e893000c 	ldm	r3, {r2, r3}
    318c:	eb000659 	bl	4af8 <__kernel_sin>
    3190:	eaffffd2 	b	30e0 <cos+0x38>
    3194:	3fe921fb 	.word	0x3fe921fb
    3198:	7fefffff 	.word	0x7fefffff

0000319c <sin>:
    319c:	e92d4030 	push	{r4, r5, lr}
    31a0:	e59fe0ec 	ldr	lr, [pc, #236]	; 3294 <sin+0xf8>
    31a4:	e3c1c102 	bic	r12, r1, #-2147483648	; 0x80000000
    31a8:	e15c000e 	cmp	r12, lr
    31ac:	e24dd01c 	sub	sp, sp, #28
    31b0:	e1a02000 	mov	r2, r0
    31b4:	e1a03001 	mov	r3, r1
    31b8:	e1a04000 	mov	r4, r0
    31bc:	e1a05001 	mov	r5, r1
    31c0:	da000017 	ble	3224 <sin+0x88>
    31c4:	e59fe0cc 	ldr	lr, [pc, #204]	; 3298 <sin+0xfc>
    31c8:	e15c000e 	cmp	r12, lr
    31cc:	da000003 	ble	31e0 <sin+0x44>
    31d0:	eb00098d 	bl	580c <__aeabi_dsub>
    31d4:	e28dd01c 	add	sp, sp, #28
    31d8:	e8bd4030 	pop	{r4, r5, lr}
    31dc:	e12fff1e 	bx	lr
    31e0:	e28d2008 	add	r2, sp, #8
    31e4:	eb0000f5 	bl	35c0 <__ieee754_rem_pio2>
    31e8:	e2000003 	and	r0, r0, #3
    31ec:	e3500001 	cmp	r0, #1
    31f0:	0a00001a 	beq	3260 <sin+0xc4>
    31f4:	e3500002 	cmp	r0, #2
    31f8:	0a00000f 	beq	323c <sin+0xa0>
    31fc:	e3500000 	cmp	r0, #0
    3200:	1a00001c 	bne	3278 <sin+0xdc>
    3204:	e3a03001 	mov	r3, #1
    3208:	e58d3000 	str	r3, [sp]
    320c:	e28d1008 	add	r1, sp, #8
    3210:	e8910003 	ldm	r1, {r0, r1}
    3214:	e28d3010 	add	r3, sp, #16
    3218:	e893000c 	ldm	r3, {r2, r3}
    321c:	eb000635 	bl	4af8 <__kernel_sin>
    3220:	eaffffeb 	b	31d4 <sin+0x38>
    3224:	e3a03000 	mov	r3, #0
    3228:	e58d3000 	str	r3, [sp]
    322c:	e3a02000 	mov	r2, #0
    3230:	e3a03000 	mov	r3, #0
    3234:	eb00062f 	bl	4af8 <__kernel_sin>
    3238:	eaffffe5 	b	31d4 <sin+0x38>
    323c:	e3a03001 	mov	r3, #1
    3240:	e58d3000 	str	r3, [sp]
    3244:	e28d1008 	add	r1, sp, #8
    3248:	e8910003 	ldm	r1, {r0, r1}
    324c:	e28d3010 	add	r3, sp, #16
    3250:	e893000c 	ldm	r3, {r2, r3}
    3254:	eb000627 	bl	4af8 <__kernel_sin>
    3258:	e2811102 	add	r1, r1, #-2147483648	; 0x80000000
    325c:	eaffffdc 	b	31d4 <sin+0x38>
    3260:	e28d1008 	add	r1, sp, #8
    3264:	e8910003 	ldm	r1, {r0, r1}
    3268:	e28d3010 	add	r3, sp, #16
    326c:	e893000c 	ldm	r3, {r2, r3}
    3270:	eb000268 	bl	3c18 <__kernel_cos>
    3274:	eaffffd6 	b	31d4 <sin+0x38>
    3278:	e28d1008 	add	r1, sp, #8
    327c:	e8910003 	ldm	r1, {r0, r1}
    3280:	e28d3010 	add	r3, sp, #16
    3284:	e893000c 	ldm	r3, {r2, r3}
    3288:	eb000262 	bl	3c18 <__kernel_cos>
    328c:	e2811102 	add	r1, r1, #-2147483648	; 0x80000000
    3290:	eaffffcf 	b	31d4 <sin+0x38>
    3294:	3fe921fb 	.word	0x3fe921fb
    3298:	7fefffff 	.word	0x7fefffff

0000329c <log10>:
    329c:	e92d41f0 	push	{r4, r5, r6, r7, r8, lr}
    32a0:	e24dd028 	sub	sp, sp, #40	; 0x28
    32a4:	e1a04000 	mov	r4, r0
    32a8:	e1a05001 	mov	r5, r1
    32ac:	eb000059 	bl	3418 <__ieee754_log10>
    32b0:	e59f814c 	ldr	r8, [pc, #332]	; 3404 <log10+0x168>
    32b4:	e1d830d0 	ldrsb	r3, [r8]
    32b8:	e3730001 	cmn	r3, #1
    32bc:	e1a06000 	mov	r6, r0
    32c0:	e1a07001 	mov	r7, r1
    32c4:	0a00000b 	beq	32f8 <log10+0x5c>
    32c8:	e1a00004 	mov	r0, r4
    32cc:	e1a01005 	mov	r1, r5
    32d0:	eb0006f8 	bl	4eb8 <__fpclassifyd>
    32d4:	e3500000 	cmp	r0, #0
    32d8:	0a000006 	beq	32f8 <log10+0x5c>
    32dc:	e1a00004 	mov	r0, r4
    32e0:	e1a01005 	mov	r1, r5
    32e4:	e3a02000 	mov	r2, #0
    32e8:	e3a03000 	mov	r3, #0
    32ec:	eb000bb1 	bl	61b8 <__aeabi_dcmple>
    32f0:	e3500000 	cmp	r0, #0
    32f4:	1a000004 	bne	330c <log10+0x70>
    32f8:	e1a00006 	mov	r0, r6
    32fc:	e1a01007 	mov	r1, r7
    3300:	e28dd028 	add	sp, sp, #40	; 0x28
    3304:	e8bd41f0 	pop	{r4, r5, r6, r7, r8, lr}
    3308:	e12fff1e 	bx	lr
    330c:	e59f30f4 	ldr	r3, [pc, #244]	; 3408 <log10+0x16c>
    3310:	e5d86000 	ldrb	r6, [r8]
    3314:	e58d3004 	str	r3, [sp, #4]
    3318:	e3560000 	cmp	r6, #0
    331c:	e3a03000 	mov	r3, #0
    3320:	e58d3020 	str	r3, [sp, #32]
    3324:	059f30e0 	ldreq	r3, [pc, #224]	; 340c <log10+0x170>
    3328:	159f30e0 	ldrne	r3, [pc, #224]	; 3410 <log10+0x174>
    332c:	03a0220e 	moveq	r2, #-536870912	; 0xe0000000
    3330:	13a02000 	movne	r2, #0
    3334:	e58d2018 	str	r2, [sp, #24]
    3338:	e58d301c 	str	r3, [sp, #28]
    333c:	e1a00004 	mov	r0, r4
    3340:	e1a01005 	mov	r1, r5
    3344:	e3a02000 	mov	r2, #0
    3348:	e3a03000 	mov	r3, #0
    334c:	e58d4008 	str	r4, [sp, #8]
    3350:	e58d500c 	str	r5, [sp, #12]
    3354:	e58d4010 	str	r4, [sp, #16]
    3358:	e58d5014 	str	r5, [sp, #20]
    335c:	eb000b89 	bl	6188 <__aeabi_dcmpeq>
    3360:	e3500000 	cmp	r0, #0
    3364:	0a00000d 	beq	33a0 <log10+0x104>
    3368:	e3a03002 	mov	r3, #2
    336c:	e3560002 	cmp	r6, #2
    3370:	e58d3000 	str	r3, [sp]
    3374:	0a00001a 	beq	33e4 <log10+0x148>
    3378:	e1a0000d 	mov	r0, sp
    337c:	eb0006e8 	bl	4f24 <matherr>
    3380:	e3500000 	cmp	r0, #0
    3384:	0a000016 	beq	33e4 <log10+0x148>
    3388:	e59d3020 	ldr	r3, [sp, #32]
    338c:	e3530000 	cmp	r3, #0
    3390:	1a000017 	bne	33f4 <log10+0x158>
    3394:	e28d7018 	add	r7, sp, #24
    3398:	e89700c0 	ldm	r7, {r6, r7}
    339c:	eaffffd5 	b	32f8 <log10+0x5c>
    33a0:	e3a03001 	mov	r3, #1
    33a4:	e3560002 	cmp	r6, #2
    33a8:	e58d3000 	str	r3, [sp]
    33ac:	0a000008 	beq	33d4 <log10+0x138>
    33b0:	e1a0000d 	mov	r0, sp
    33b4:	eb0006da 	bl	4f24 <matherr>
    33b8:	e3500000 	cmp	r0, #0
    33bc:	0a000004 	beq	33d4 <log10+0x138>
    33c0:	e59f004c 	ldr	r0, [pc, #76]	; 3414 <log10+0x178>
    33c4:	eb0006d8 	bl	4f2c <nan>
    33c8:	e58d0018 	str	r0, [sp, #24]
    33cc:	e58d101c 	str	r1, [sp, #28]
    33d0:	eaffffec 	b	3388 <log10+0xec>
    33d4:	eb000d95 	bl	6a30 <__errno>
    33d8:	e3a03021 	mov	r3, #33	; 0x21
    33dc:	e5803000 	str	r3, [r0]
    33e0:	eafffff6 	b	33c0 <log10+0x124>
    33e4:	eb000d91 	bl	6a30 <__errno>
    33e8:	e3a03022 	mov	r3, #34	; 0x22
    33ec:	e5803000 	str	r3, [r0]
    33f0:	eaffffe4 	b	3388 <log10+0xec>
    33f4:	eb000d8d 	bl	6a30 <__errno>
    33f8:	e59d3020 	ldr	r3, [sp, #32]
    33fc:	e5803000 	str	r3, [r0]
    3400:	eaffffe3 	b	3394 <log10+0xf8>
    3404:	000532b4 	.word	0x000532b4
    3408:	0000803c 	.word	0x0000803c
    340c:	c7efffff 	.word	0xc7efffff
    3410:	fff00000 	.word	0xfff00000
    3414:	00008044 	.word	0x00008044

00003418 <__ieee754_log10>:
    3418:	e3510601 	cmp	r1, #1048576	; 0x100000
    341c:	e92d47f0 	push	{r4, r5, r6, r7, r8, r9, r10, lr}
    3420:	e1a02001 	mov	r2, r1
    3424:	e1a06000 	mov	r6, r0
    3428:	e1a07001 	mov	r7, r1
    342c:	e1a04000 	mov	r4, r0
    3430:	e1a05001 	mov	r5, r1
    3434:	aa000015 	bge	3490 <__ieee754_log10+0x78>
    3438:	e3c12102 	bic	r2, r1, #-2147483648	; 0x80000000
    343c:	e1922000 	orrs	r2, r2, r0
    3440:	0a000047 	beq	3564 <__ieee754_log10+0x14c>
    3444:	e3510000 	cmp	r1, #0
    3448:	ba00004b 	blt	357c <__ieee754_log10+0x164>
    344c:	e3a02000 	mov	r2, #0
    3450:	e59f3158 	ldr	r3, [pc, #344]	; 35b0 <__ieee754_log10+0x198>
    3454:	eb0009f1 	bl	5c20 <__aeabi_dmul>
    3458:	e59f3154 	ldr	r3, [pc, #340]	; 35b4 <__ieee754_log10+0x19c>
    345c:	e1a02001 	mov	r2, r1
    3460:	e1520003 	cmp	r2, r3
    3464:	e1a07001 	mov	r7, r1
    3468:	e1a06000 	mov	r6, r0
    346c:	e3e01035 	mvn	r1, #53	; 0x35
    3470:	da00000a 	ble	34a0 <__ieee754_log10+0x88>
    3474:	e1a00006 	mov	r0, r6
    3478:	e1a01007 	mov	r1, r7
    347c:	e1a02006 	mov	r2, r6
    3480:	e1a03007 	mov	r3, r7
    3484:	eb0008e1 	bl	5810 <__adddf3>
    3488:	e8bd47f0 	pop	{r4, r5, r6, r7, r8, r9, r10, lr}
    348c:	e12fff1e 	bx	lr
    3490:	e59f311c 	ldr	r3, [pc, #284]	; 35b4 <__ieee754_log10+0x19c>
    3494:	e1520003 	cmp	r2, r3
    3498:	e3a01000 	mov	r1, #0
    349c:	cafffff4 	bgt	3474 <__ieee754_log10+0x5c>
    34a0:	e1a03a42 	asr	r3, r2, #20
    34a4:	e2433fff 	sub	r3, r3, #1020	; 0x3fc
    34a8:	e2433003 	sub	r3, r3, #3
    34ac:	e0830001 	add	r0, r3, r1
    34b0:	e1a08fa0 	lsr	r8, r0, #31
    34b4:	e3c224ff 	bic	r2, r2, #-16777216	; 0xff000000
    34b8:	e0800008 	add	r0, r0, r8
    34bc:	e3c2a60f 	bic	r10, r2, #15728640	; 0xf00000
    34c0:	eb00099f 	bl	5b44 <__aeabi_i2d>
    34c4:	e2688fff 	rsb	r8, r8, #1020	; 0x3fc
    34c8:	e2888003 	add	r8, r8, #3
    34cc:	e18a7a08 	orr	r7, r10, r8, lsl #20
    34d0:	e1a04000 	mov	r4, r0
    34d4:	e1a05001 	mov	r5, r1
    34d8:	e1a00006 	mov	r0, r6
    34dc:	e1a01007 	mov	r1, r7
    34e0:	eb0006fc 	bl	50d8 <__ieee754_log>
    34e4:	e28f30ac 	add	r3, pc, #172	; 0xac
    34e8:	e893000c 	ldm	r3, {r2, r3}
    34ec:	e1a08000 	mov	r8, r0
    34f0:	e1a09001 	mov	r9, r1
    34f4:	e1a00004 	mov	r0, r4
    34f8:	e1a01005 	mov	r1, r5
    34fc:	eb0009c7 	bl	5c20 <__aeabi_dmul>
    3500:	e28f3098 	add	r3, pc, #152	; 0x98
    3504:	e893000c 	ldm	r3, {r2, r3}
    3508:	e1a06000 	mov	r6, r0
    350c:	e1a07001 	mov	r7, r1
    3510:	e1a00004 	mov	r0, r4
    3514:	e1a01005 	mov	r1, r5
    3518:	eb0009c0 	bl	5c20 <__aeabi_dmul>
    351c:	e28f3084 	add	r3, pc, #132	; 0x84
    3520:	e893000c 	ldm	r3, {r2, r3}
    3524:	e1a04000 	mov	r4, r0
    3528:	e1a05001 	mov	r5, r1
    352c:	e1a00008 	mov	r0, r8
    3530:	e1a01009 	mov	r1, r9
    3534:	eb0009b9 	bl	5c20 <__aeabi_dmul>
    3538:	e1a02000 	mov	r2, r0
    353c:	e1a03001 	mov	r3, r1
    3540:	e1a00004 	mov	r0, r4
    3544:	e1a01005 	mov	r1, r5
    3548:	eb0008b0 	bl	5810 <__adddf3>
    354c:	e1a02000 	mov	r2, r0
    3550:	e1a03001 	mov	r3, r1
    3554:	e1a00006 	mov	r0, r6
    3558:	e1a01007 	mov	r1, r7
    355c:	eb0008ab 	bl	5810 <__adddf3>
    3560:	eaffffc8 	b	3488 <__ieee754_log10+0x70>
    3564:	e3a02000 	mov	r2, #0
    3568:	e3a03000 	mov	r3, #0
    356c:	e3a00000 	mov	r0, #0
    3570:	e59f1040 	ldr	r1, [pc, #64]	; 35b8 <__ieee754_log10+0x1a0>
    3574:	eb000a4d 	bl	5eb0 <__aeabi_ddiv>
    3578:	eaffffc2 	b	3488 <__ieee754_log10+0x70>
    357c:	e1a02000 	mov	r2, r0
    3580:	e1a03001 	mov	r3, r1
    3584:	eb0008a0 	bl	580c <__aeabi_dsub>
    3588:	e3a02000 	mov	r2, #0
    358c:	e3a03000 	mov	r3, #0
    3590:	eb000a46 	bl	5eb0 <__aeabi_ddiv>
    3594:	eaffffbb 	b	3488 <__ieee754_log10+0x70>
    3598:	509f6000 	.word	0x509f6000
    359c:	3fd34413 	.word	0x3fd34413
    35a0:	11f12b36 	.word	0x11f12b36
    35a4:	3d59fef3 	.word	0x3d59fef3
    35a8:	1526e50e 	.word	0x1526e50e
    35ac:	3fdbcb7b 	.word	0x3fdbcb7b
    35b0:	43500000 	.word	0x43500000
    35b4:	7fefffff 	.word	0x7fefffff
    35b8:	c3500000 	.word	0xc3500000
    35bc:	e1a00000 	nop			; (mov r0, r0)

000035c0 <__ieee754_rem_pio2>:
    35c0:	e92d4ff0 	push	{r4, r5, r6, r7, r8, r9, r10, r11, lr}
    35c4:	e59fc3bc 	ldr	r12, [pc, #956]	; 3988 <__ieee754_rem_pio2+0x3c8>
    35c8:	e3c17102 	bic	r7, r1, #-2147483648	; 0x80000000
    35cc:	e157000c 	cmp	r7, r12
    35d0:	e24dd03c 	sub	sp, sp, #60	; 0x3c
    35d4:	e1a04000 	mov	r4, r0
    35d8:	e1a05001 	mov	r5, r1
    35dc:	e1a0a000 	mov	r10, r0
    35e0:	e1a0b001 	mov	r11, r1
    35e4:	e1a08002 	mov	r8, r2
    35e8:	da00005b 	ble	375c <__ieee754_rem_pio2+0x19c>
    35ec:	e59f2398 	ldr	r2, [pc, #920]	; 398c <__ieee754_rem_pio2+0x3cc>
    35f0:	e1570002 	cmp	r7, r2
    35f4:	e1a09001 	mov	r9, r1
    35f8:	ca000019 	bgt	3664 <__ieee754_rem_pio2+0xa4>
    35fc:	e3510000 	cmp	r1, #0
    3600:	e28f3fd6 	add	r3, pc, #856	; 0x358
    3604:	e893000c 	ldm	r3, {r2, r3}
    3608:	da000149 	ble	3b34 <__ieee754_rem_pio2+0x574>
    360c:	eb00087e 	bl	580c <__aeabi_dsub>
    3610:	e59f3378 	ldr	r3, [pc, #888]	; 3990 <__ieee754_rem_pio2+0x3d0>
    3614:	e1570003 	cmp	r7, r3
    3618:	e1a0a000 	mov	r10, r0
    361c:	e1a0b001 	mov	r11, r1
    3620:	0a00005f 	beq	37a4 <__ieee754_rem_pio2+0x1e4>
    3624:	e28f3fcf 	add	r3, pc, #828	; 0x33c
    3628:	e893000c 	ldm	r3, {r2, r3}
    362c:	eb000876 	bl	580c <__aeabi_dsub>
    3630:	e1a02000 	mov	r2, r0
    3634:	e1a03001 	mov	r3, r1
    3638:	e8880003 	stm	r8, {r0, r1}
    363c:	e1a0000a 	mov	r0, r10
    3640:	e1a0100b 	mov	r1, r11
    3644:	eb000870 	bl	580c <__aeabi_dsub>
    3648:	e28f3fc6 	add	r3, pc, #792	; 0x318
    364c:	e893000c 	ldm	r3, {r2, r3}
    3650:	eb00086d 	bl	580c <__aeabi_dsub>
    3654:	e3a06001 	mov	r6, #1
    3658:	e5880008 	str	r0, [r8, #8]
    365c:	e588100c 	str	r1, [r8, #12]
    3660:	ea000043 	b	3774 <__ieee754_rem_pio2+0x1b4>
    3664:	e59f3328 	ldr	r3, [pc, #808]	; 3994 <__ieee754_rem_pio2+0x3d4>
    3668:	e1570003 	cmp	r7, r3
    366c:	da000075 	ble	3848 <__ieee754_rem_pio2+0x288>
    3670:	e59f3320 	ldr	r3, [pc, #800]	; 3998 <__ieee754_rem_pio2+0x3d8>
    3674:	e1570003 	cmp	r7, r3
    3678:	ca000041 	bgt	3784 <__ieee754_rem_pio2+0x1c4>
    367c:	e1a0aa47 	asr	r10, r7, #20
    3680:	e24aae41 	sub	r10, r10, #1040	; 0x410
    3684:	e24aa006 	sub	r10, r10, #6
    3688:	e0475a0a 	sub	r5, r7, r10, lsl #20
    368c:	e1a01005 	mov	r1, r5
    3690:	e1a04000 	mov	r4, r0
    3694:	eb000ad9 	bl	6200 <__aeabi_d2iz>
    3698:	eb000929 	bl	5b44 <__aeabi_i2d>
    369c:	e1a06000 	mov	r6, r0
    36a0:	e1a07001 	mov	r7, r1
    36a4:	e1a02000 	mov	r2, r0
    36a8:	e1a03001 	mov	r3, r1
    36ac:	e1a00004 	mov	r0, r4
    36b0:	e1a01005 	mov	r1, r5
    36b4:	e58d6020 	str	r6, [sp, #32]
    36b8:	e58d7024 	str	r7, [sp, #36]	; 0x24
    36bc:	eb000852 	bl	580c <__aeabi_dsub>
    36c0:	e3a02000 	mov	r2, #0
    36c4:	e59f32d0 	ldr	r3, [pc, #720]	; 399c <__ieee754_rem_pio2+0x3dc>
    36c8:	eb000954 	bl	5c20 <__aeabi_dmul>
    36cc:	e1a06000 	mov	r6, r0
    36d0:	e1a07001 	mov	r7, r1
    36d4:	eb000ac9 	bl	6200 <__aeabi_d2iz>
    36d8:	eb000919 	bl	5b44 <__aeabi_i2d>
    36dc:	e1a02000 	mov	r2, r0
    36e0:	e1a03001 	mov	r3, r1
    36e4:	e1a04000 	mov	r4, r0
    36e8:	e1a05001 	mov	r5, r1
    36ec:	e1a00006 	mov	r0, r6
    36f0:	e1a01007 	mov	r1, r7
    36f4:	e58d4028 	str	r4, [sp, #40]	; 0x28
    36f8:	e58d502c 	str	r5, [sp, #44]	; 0x2c
    36fc:	eb000842 	bl	580c <__aeabi_dsub>
    3700:	e3a02000 	mov	r2, #0
    3704:	e59f3290 	ldr	r3, [pc, #656]	; 399c <__ieee754_rem_pio2+0x3dc>
    3708:	eb000944 	bl	5c20 <__aeabi_dmul>
    370c:	e3a02000 	mov	r2, #0
    3710:	e3a03000 	mov	r3, #0
    3714:	e58d0030 	str	r0, [sp, #48]	; 0x30
    3718:	e58d1034 	str	r1, [sp, #52]	; 0x34
    371c:	eb000a99 	bl	6188 <__aeabi_dcmpeq>
    3720:	e3500000 	cmp	r0, #0
    3724:	03a06003 	moveq	r6, #3
    3728:	0a000032 	beq	37f8 <__ieee754_rem_pio2+0x238>
    372c:	e28d7028 	add	r7, sp, #40	; 0x28
    3730:	e3a06003 	mov	r6, #3
    3734:	e1a00004 	mov	r0, r4
    3738:	e1a01005 	mov	r1, r5
    373c:	e3a02000 	mov	r2, #0
    3740:	e3a03000 	mov	r3, #0
    3744:	eb000a8f 	bl	6188 <__aeabi_dcmpeq>
    3748:	e3500000 	cmp	r0, #0
    374c:	e2466001 	sub	r6, r6, #1
    3750:	0a000028 	beq	37f8 <__ieee754_rem_pio2+0x238>
    3754:	e9370003 	ldmdb	r7!, {r0, r1}
    3758:	eafffff7 	b	373c <__ieee754_rem_pio2+0x17c>
    375c:	e8820030 	stm	r2, {r4, r5}
    3760:	e3a03000 	mov	r3, #0
    3764:	e3a02000 	mov	r2, #0
    3768:	e5882008 	str	r2, [r8, #8]
    376c:	e588300c 	str	r3, [r8, #12]
    3770:	e3a06000 	mov	r6, #0
    3774:	e1a00006 	mov	r0, r6
    3778:	e28dd03c 	add	sp, sp, #60	; 0x3c
    377c:	e8bd4ff0 	pop	{r4, r5, r6, r7, r8, r9, r10, r11, lr}
    3780:	e12fff1e 	bx	lr
    3784:	e1a02000 	mov	r2, r0
    3788:	e1a03001 	mov	r3, r1
    378c:	eb00081e 	bl	580c <__aeabi_dsub>
    3790:	e3a06000 	mov	r6, #0
    3794:	e5880008 	str	r0, [r8, #8]
    3798:	e588100c 	str	r1, [r8, #12]
    379c:	e8880003 	stm	r8, {r0, r1}
    37a0:	eafffff3 	b	3774 <__ieee754_rem_pio2+0x1b4>
    37a4:	e28f3f71 	add	r3, pc, #452	; 0x1c4
    37a8:	e893000c 	ldm	r3, {r2, r3}
    37ac:	eb000816 	bl	580c <__aeabi_dsub>
    37b0:	e28f3d07 	add	r3, pc, #448	; 0x1c0
    37b4:	e893000c 	ldm	r3, {r2, r3}
    37b8:	e1a06000 	mov	r6, r0
    37bc:	e1a07001 	mov	r7, r1
    37c0:	eb000811 	bl	580c <__aeabi_dsub>
    37c4:	e1a02000 	mov	r2, r0
    37c8:	e1a03001 	mov	r3, r1
    37cc:	e8880003 	stm	r8, {r0, r1}
    37d0:	e1a00006 	mov	r0, r6
    37d4:	e1a01007 	mov	r1, r7
    37d8:	eb00080b 	bl	580c <__aeabi_dsub>
    37dc:	e28f3f65 	add	r3, pc, #404	; 0x194
    37e0:	e893000c 	ldm	r3, {r2, r3}
    37e4:	eb000808 	bl	580c <__aeabi_dsub>
    37e8:	e3a06001 	mov	r6, #1
    37ec:	e5880008 	str	r0, [r8, #8]
    37f0:	e588100c 	str	r1, [r8, #12]
    37f4:	eaffffde 	b	3774 <__ieee754_rem_pio2+0x1b4>
    37f8:	e3a03002 	mov	r3, #2
    37fc:	e58d3000 	str	r3, [sp]
    3800:	e59f3198 	ldr	r3, [pc, #408]	; 39a0 <__ieee754_rem_pio2+0x3e0>
    3804:	e28d0020 	add	r0, sp, #32
    3808:	e58d3004 	str	r3, [sp, #4]
    380c:	e1a01008 	mov	r1, r8
    3810:	e1a03006 	mov	r3, r6
    3814:	e1a0200a 	mov	r2, r10
    3818:	eb0001d0 	bl	3f60 <__kernel_rem_pio2>
    381c:	e3590000 	cmp	r9, #0
    3820:	e1a06000 	mov	r6, r0
    3824:	aaffffd2 	bge	3774 <__ieee754_rem_pio2+0x1b4>
    3828:	e5982004 	ldr	r2, [r8, #4]
    382c:	e598300c 	ldr	r3, [r8, #12]
    3830:	e2822102 	add	r2, r2, #-2147483648	; 0x80000000
    3834:	e2833102 	add	r3, r3, #-2147483648	; 0x80000000
    3838:	e5882004 	str	r2, [r8, #4]
    383c:	e588300c 	str	r3, [r8, #12]
    3840:	e2606000 	rsb	r6, r0, #0
    3844:	eaffffca 	b	3774 <__ieee754_rem_pio2+0x1b4>
    3848:	eb000532 	bl	4d18 <fabs>
    384c:	e28f3f4b 	add	r3, pc, #300	; 0x12c
    3850:	e893000c 	ldm	r3, {r2, r3}
    3854:	e1a04000 	mov	r4, r0
    3858:	e1a05001 	mov	r5, r1
    385c:	eb0008ef 	bl	5c20 <__aeabi_dmul>
    3860:	e3a02000 	mov	r2, #0
    3864:	e59f3138 	ldr	r3, [pc, #312]	; 39a4 <__ieee754_rem_pio2+0x3e4>
    3868:	eb0007e8 	bl	5810 <__adddf3>
    386c:	eb000a63 	bl	6200 <__aeabi_d2iz>
    3870:	e1a06000 	mov	r6, r0
    3874:	eb0008b2 	bl	5b44 <__aeabi_i2d>
    3878:	e28f30e0 	add	r3, pc, #224	; 0xe0
    387c:	e893000c 	ldm	r3, {r2, r3}
    3880:	e58d0010 	str	r0, [sp, #16]
    3884:	e58d1014 	str	r1, [sp, #20]
    3888:	eb0008e4 	bl	5c20 <__aeabi_dmul>
    388c:	e1a02000 	mov	r2, r0
    3890:	e1a03001 	mov	r3, r1
    3894:	e1a00004 	mov	r0, r4
    3898:	e1a01005 	mov	r1, r5
    389c:	eb0007da 	bl	580c <__aeabi_dsub>
    38a0:	e28f30c0 	add	r3, pc, #192	; 0xc0
    38a4:	e893000c 	ldm	r3, {r2, r3}
    38a8:	e1a0a000 	mov	r10, r0
    38ac:	e1a0b001 	mov	r11, r1
    38b0:	e28d1010 	add	r1, sp, #16
    38b4:	e8910003 	ldm	r1, {r0, r1}
    38b8:	eb0008d8 	bl	5c20 <__aeabi_dmul>
    38bc:	e356001f 	cmp	r6, #31
    38c0:	e58d0008 	str	r0, [sp, #8]
    38c4:	e58d100c 	str	r1, [sp, #12]
    38c8:	e1a0000a 	mov	r0, r10
    38cc:	e1a0100b 	mov	r1, r11
    38d0:	ca000035 	bgt	39ac <__ieee754_rem_pio2+0x3ec>
    38d4:	e59f30cc 	ldr	r3, [pc, #204]	; 39a8 <__ieee754_rem_pio2+0x3e8>
    38d8:	e2462001 	sub	r2, r6, #1
    38dc:	e7933102 	ldr	r3, [r3, r2, lsl #2]
    38e0:	e1530007 	cmp	r3, r7
    38e4:	0a000030 	beq	39ac <__ieee754_rem_pio2+0x3ec>
    38e8:	e28d3008 	add	r3, sp, #8
    38ec:	e893000c 	ldm	r3, {r2, r3}
    38f0:	eb0007c5 	bl	580c <__aeabi_dsub>
    38f4:	e1a02000 	mov	r2, r0
    38f8:	e1a03001 	mov	r3, r1
    38fc:	e888000c 	stm	r8, {r2, r3}
    3900:	e1a05000 	mov	r5, r0
    3904:	e1a04001 	mov	r4, r1
    3908:	e1a02005 	mov	r2, r5
    390c:	e1a03004 	mov	r3, r4
    3910:	e1a0000a 	mov	r0, r10
    3914:	e1a0100b 	mov	r1, r11
    3918:	eb0007bb 	bl	580c <__aeabi_dsub>
    391c:	e28d3008 	add	r3, sp, #8
    3920:	e893000c 	ldm	r3, {r2, r3}
    3924:	eb0007b8 	bl	580c <__aeabi_dsub>
    3928:	e3590000 	cmp	r9, #0
    392c:	e1a02000 	mov	r2, r0
    3930:	e1a03001 	mov	r3, r1
    3934:	e5882008 	str	r2, [r8, #8]
    3938:	e588300c 	str	r3, [r8, #12]
    393c:	aaffff8c 	bge	3774 <__ieee754_rem_pio2+0x1b4>
    3940:	e2844102 	add	r4, r4, #-2147483648	; 0x80000000
    3944:	e2811102 	add	r1, r1, #-2147483648	; 0x80000000
    3948:	e5885000 	str	r5, [r8]
    394c:	e5884004 	str	r4, [r8, #4]
    3950:	e5880008 	str	r0, [r8, #8]
    3954:	e588100c 	str	r1, [r8, #12]
    3958:	e2666000 	rsb	r6, r6, #0
    395c:	eaffff84 	b	3774 <__ieee754_rem_pio2+0x1b4>
    3960:	54400000 	.word	0x54400000
    3964:	3ff921fb 	.word	0x3ff921fb
    3968:	1a626331 	.word	0x1a626331
    396c:	3dd0b461 	.word	0x3dd0b461
    3970:	1a600000 	.word	0x1a600000
    3974:	3dd0b461 	.word	0x3dd0b461
    3978:	2e037073 	.word	0x2e037073
    397c:	3ba3198a 	.word	0x3ba3198a
    3980:	6dc9c883 	.word	0x6dc9c883
    3984:	3fe45f30 	.word	0x3fe45f30
    3988:	3fe921fb 	.word	0x3fe921fb
    398c:	4002d97b 	.word	0x4002d97b
    3990:	3ff921fb 	.word	0x3ff921fb
    3994:	413921fb 	.word	0x413921fb
    3998:	7fefffff 	.word	0x7fefffff
    399c:	41700000 	.word	0x41700000
    39a0:	000080c8 	.word	0x000080c8
    39a4:	3fe00000 	.word	0x3fe00000
    39a8:	00008048 	.word	0x00008048
    39ac:	e28d3008 	add	r3, sp, #8
    39b0:	e893000c 	ldm	r3, {r2, r3}
    39b4:	eb000794 	bl	580c <__aeabi_dsub>
    39b8:	e1a07a47 	asr	r7, r7, #20
    39bc:	e1a04001 	mov	r4, r1
    39c0:	e1a01081 	lsl	r1, r1, #1
    39c4:	e1a05000 	mov	r5, r0
    39c8:	e0471aa1 	sub	r1, r7, r1, lsr #21
    39cc:	e1a02005 	mov	r2, r5
    39d0:	e1a03004 	mov	r3, r4
    39d4:	e3510010 	cmp	r1, #16
    39d8:	e888000c 	stm	r8, {r2, r3}
    39dc:	daffffc9 	ble	3908 <__ieee754_rem_pio2+0x348>
    39e0:	e28f3f82 	add	r3, pc, #520	; 0x208
    39e4:	e893000c 	ldm	r3, {r2, r3}
    39e8:	e28d1010 	add	r1, sp, #16
    39ec:	e8910003 	ldm	r1, {r0, r1}
    39f0:	eb00088a 	bl	5c20 <__aeabi_dmul>
    39f4:	e1a04000 	mov	r4, r0
    39f8:	e1a05001 	mov	r5, r1
    39fc:	e1a02004 	mov	r2, r4
    3a00:	e1a03005 	mov	r3, r5
    3a04:	e1a0000a 	mov	r0, r10
    3a08:	e1a0100b 	mov	r1, r11
    3a0c:	eb00077e 	bl	580c <__aeabi_dsub>
    3a10:	e58d0018 	str	r0, [sp, #24]
    3a14:	e58d101c 	str	r1, [sp, #28]
    3a18:	e28d3018 	add	r3, sp, #24
    3a1c:	e893000c 	ldm	r3, {r2, r3}
    3a20:	e1a0000a 	mov	r0, r10
    3a24:	e1a0100b 	mov	r1, r11
    3a28:	eb000777 	bl	580c <__aeabi_dsub>
    3a2c:	e1a02004 	mov	r2, r4
    3a30:	e1a03005 	mov	r3, r5
    3a34:	eb000774 	bl	580c <__aeabi_dsub>
    3a38:	e28f3f6e 	add	r3, pc, #440	; 0x1b8
    3a3c:	e893000c 	ldm	r3, {r2, r3}
    3a40:	e1a04000 	mov	r4, r0
    3a44:	e1a05001 	mov	r5, r1
    3a48:	e28d1010 	add	r1, sp, #16
    3a4c:	e8910003 	ldm	r1, {r0, r1}
    3a50:	eb000872 	bl	5c20 <__aeabi_dmul>
    3a54:	e1a02004 	mov	r2, r4
    3a58:	e1a03005 	mov	r3, r5
    3a5c:	eb00076a 	bl	580c <__aeabi_dsub>
    3a60:	e58d0008 	str	r0, [sp, #8]
    3a64:	e58d100c 	str	r1, [sp, #12]
    3a68:	e28d3008 	add	r3, sp, #8
    3a6c:	e893000c 	ldm	r3, {r2, r3}
    3a70:	e28d1018 	add	r1, sp, #24
    3a74:	e8910003 	ldm	r1, {r0, r1}
    3a78:	eb000763 	bl	580c <__aeabi_dsub>
    3a7c:	e1a04001 	mov	r4, r1
    3a80:	e1a01081 	lsl	r1, r1, #1
    3a84:	e1a05000 	mov	r5, r0
    3a88:	e0477aa1 	sub	r7, r7, r1, lsr #21
    3a8c:	e1a02005 	mov	r2, r5
    3a90:	e1a03004 	mov	r3, r4
    3a94:	e3570031 	cmp	r7, #49	; 0x31
    3a98:	e888000c 	stm	r8, {r2, r3}
    3a9c:	da00004f 	ble	3be0 <__ieee754_rem_pio2+0x620>
    3aa0:	e3a0242e 	mov	r2, #771751936	; 0x2e000000
    3aa4:	e59f3164 	ldr	r3, [pc, #356]	; 3c10 <__ieee754_rem_pio2+0x650>
    3aa8:	e28d1010 	add	r1, sp, #16
    3aac:	e8910003 	ldm	r1, {r0, r1}
    3ab0:	eb00085a 	bl	5c20 <__aeabi_dmul>
    3ab4:	e1a04000 	mov	r4, r0
    3ab8:	e1a05001 	mov	r5, r1
    3abc:	e1a02004 	mov	r2, r4
    3ac0:	e1a03005 	mov	r3, r5
    3ac4:	e28d1018 	add	r1, sp, #24
    3ac8:	e8910003 	ldm	r1, {r0, r1}
    3acc:	eb00074e 	bl	580c <__aeabi_dsub>
    3ad0:	e1a0a000 	mov	r10, r0
    3ad4:	e1a0b001 	mov	r11, r1
    3ad8:	e1a0200a 	mov	r2, r10
    3adc:	e1a0300b 	mov	r3, r11
    3ae0:	e28d1018 	add	r1, sp, #24
    3ae4:	e8910003 	ldm	r1, {r0, r1}
    3ae8:	eb000747 	bl	580c <__aeabi_dsub>
    3aec:	e1a02004 	mov	r2, r4
    3af0:	e1a03005 	mov	r3, r5
    3af4:	eb000744 	bl	580c <__aeabi_dsub>
    3af8:	e28f3c01 	add	r3, pc, #256	; 0x100
    3afc:	e893000c 	ldm	r3, {r2, r3}
    3b00:	e1a04000 	mov	r4, r0
    3b04:	e1a05001 	mov	r5, r1
    3b08:	e28d1010 	add	r1, sp, #16
    3b0c:	e8910003 	ldm	r1, {r0, r1}
    3b10:	eb000842 	bl	5c20 <__aeabi_dmul>
    3b14:	e1a02004 	mov	r2, r4
    3b18:	e1a03005 	mov	r3, r5
    3b1c:	eb00073a 	bl	580c <__aeabi_dsub>
    3b20:	e58d0008 	str	r0, [sp, #8]
    3b24:	e58d100c 	str	r1, [sp, #12]
    3b28:	e1a0000a 	mov	r0, r10
    3b2c:	e1a0100b 	mov	r1, r11
    3b30:	eaffff6c 	b	38e8 <__ieee754_rem_pio2+0x328>
    3b34:	eb000735 	bl	5810 <__adddf3>
    3b38:	e59f30d4 	ldr	r3, [pc, #212]	; 3c14 <__ieee754_rem_pio2+0x654>
    3b3c:	e1570003 	cmp	r7, r3
    3b40:	e1a0a000 	mov	r10, r0
    3b44:	e1a0b001 	mov	r11, r1
    3b48:	0a00000f 	beq	3b8c <__ieee754_rem_pio2+0x5cc>
    3b4c:	e28f30b4 	add	r3, pc, #180	; 0xb4
    3b50:	e893000c 	ldm	r3, {r2, r3}
    3b54:	eb00072d 	bl	5810 <__adddf3>
    3b58:	e1a02000 	mov	r2, r0
    3b5c:	e1a03001 	mov	r3, r1
    3b60:	e8880003 	stm	r8, {r0, r1}
    3b64:	e1a0000a 	mov	r0, r10
    3b68:	e1a0100b 	mov	r1, r11
    3b6c:	eb000726 	bl	580c <__aeabi_dsub>
    3b70:	e28f3090 	add	r3, pc, #144	; 0x90
    3b74:	e893000c 	ldm	r3, {r2, r3}
    3b78:	eb000724 	bl	5810 <__adddf3>
    3b7c:	e3e06000 	mvn	r6, #0
    3b80:	e5880008 	str	r0, [r8, #8]
    3b84:	e588100c 	str	r1, [r8, #12]
    3b88:	eafffef9 	b	3774 <__ieee754_rem_pio2+0x1b4>
    3b8c:	e28f305c 	add	r3, pc, #92	; 0x5c
    3b90:	e893000c 	ldm	r3, {r2, r3}
    3b94:	eb00071d 	bl	5810 <__adddf3>
    3b98:	e28f3058 	add	r3, pc, #88	; 0x58
    3b9c:	e893000c 	ldm	r3, {r2, r3}
    3ba0:	e1a06000 	mov	r6, r0
    3ba4:	e1a07001 	mov	r7, r1
    3ba8:	eb000718 	bl	5810 <__adddf3>
    3bac:	e1a02000 	mov	r2, r0
    3bb0:	e1a03001 	mov	r3, r1
    3bb4:	e8880003 	stm	r8, {r0, r1}
    3bb8:	e1a00006 	mov	r0, r6
    3bbc:	e1a01007 	mov	r1, r7
    3bc0:	eb000711 	bl	580c <__aeabi_dsub>
    3bc4:	e28f302c 	add	r3, pc, #44	; 0x2c
    3bc8:	e893000c 	ldm	r3, {r2, r3}
    3bcc:	eb00070f 	bl	5810 <__adddf3>
    3bd0:	e3e06000 	mvn	r6, #0
    3bd4:	e5880008 	str	r0, [r8, #8]
    3bd8:	e588100c 	str	r1, [r8, #12]
    3bdc:	eafffee4 	b	3774 <__ieee754_rem_pio2+0x1b4>
    3be0:	e28db018 	add	r11, sp, #24
    3be4:	e89b0c00 	ldm	r11, {r10, r11}
    3be8:	eaffff46 	b	3908 <__ieee754_rem_pio2+0x348>
    3bec:	e1a00000 	nop			; (mov r0, r0)
    3bf0:	1a600000 	.word	0x1a600000
    3bf4:	3dd0b461 	.word	0x3dd0b461
    3bf8:	2e037073 	.word	0x2e037073
    3bfc:	3ba3198a 	.word	0x3ba3198a
    3c00:	252049c1 	.word	0x252049c1
    3c04:	397b839a 	.word	0x397b839a
    3c08:	1a626331 	.word	0x1a626331
    3c0c:	3dd0b461 	.word	0x3dd0b461
    3c10:	3ba3198a 	.word	0x3ba3198a
    3c14:	3ff921fb 	.word	0x3ff921fb

00003c18 <__kernel_cos>:
    3c18:	e92d4ff0 	push	{r4, r5, r6, r7, r8, r9, r10, r11, lr}
    3c1c:	e3c19102 	bic	r9, r1, #-2147483648	; 0x80000000
    3c20:	e35905f9 	cmp	r9, #1044381696	; 0x3e400000
    3c24:	e24dd014 	sub	sp, sp, #20
    3c28:	e1a06000 	mov	r6, r0
    3c2c:	e1a07001 	mov	r7, r1
    3c30:	e1a04000 	mov	r4, r0
    3c34:	e1a05001 	mov	r5, r1
    3c38:	e1a0a002 	mov	r10, r2
    3c3c:	e1a0b003 	mov	r11, r3
    3c40:	aa00004d 	bge	3d7c <__kernel_cos+0x164>
    3c44:	eb00096d 	bl	6200 <__aeabi_d2iz>
    3c48:	e3500000 	cmp	r0, #0
    3c4c:	0a0000ae 	beq	3f0c <__kernel_cos+0x2f4>
    3c50:	e1a02006 	mov	r2, r6
    3c54:	e1a03007 	mov	r3, r7
    3c58:	e1a00006 	mov	r0, r6
    3c5c:	e1a01007 	mov	r1, r7
    3c60:	eb0007ee 	bl	5c20 <__aeabi_dmul>
    3c64:	e28f3fab 	add	r3, pc, #684	; 0x2ac
    3c68:	e893000c 	ldm	r3, {r2, r3}
    3c6c:	e1a04000 	mov	r4, r0
    3c70:	e1a05001 	mov	r5, r1
    3c74:	eb0007e9 	bl	5c20 <__aeabi_dmul>
    3c78:	e28f3e2a 	add	r3, pc, #672	; 0x2a0
    3c7c:	e893000c 	ldm	r3, {r2, r3}
    3c80:	eb0006e2 	bl	5810 <__adddf3>
    3c84:	e1a02004 	mov	r2, r4
    3c88:	e1a03005 	mov	r3, r5
    3c8c:	eb0007e3 	bl	5c20 <__aeabi_dmul>
    3c90:	e28f3e29 	add	r3, pc, #656	; 0x290
    3c94:	e893000c 	ldm	r3, {r2, r3}
    3c98:	eb0006db 	bl	580c <__aeabi_dsub>
    3c9c:	e1a02004 	mov	r2, r4
    3ca0:	e1a03005 	mov	r3, r5
    3ca4:	eb0007dd 	bl	5c20 <__aeabi_dmul>
    3ca8:	e28f3d0a 	add	r3, pc, #640	; 0x280
    3cac:	e893000c 	ldm	r3, {r2, r3}
    3cb0:	eb0006d6 	bl	5810 <__adddf3>
    3cb4:	e1a02004 	mov	r2, r4
    3cb8:	e1a03005 	mov	r3, r5
    3cbc:	eb0007d7 	bl	5c20 <__aeabi_dmul>
    3cc0:	e28f3e27 	add	r3, pc, #624	; 0x270
    3cc4:	e893000c 	ldm	r3, {r2, r3}
    3cc8:	eb0006cf 	bl	580c <__aeabi_dsub>
    3ccc:	e1a02004 	mov	r2, r4
    3cd0:	e1a03005 	mov	r3, r5
    3cd4:	eb0007d1 	bl	5c20 <__aeabi_dmul>
    3cd8:	e28f3e26 	add	r3, pc, #608	; 0x260
    3cdc:	e893000c 	ldm	r3, {r2, r3}
    3ce0:	eb0006ca 	bl	5810 <__adddf3>
    3ce4:	e1a02004 	mov	r2, r4
    3ce8:	e1a03005 	mov	r3, r5
    3cec:	eb0007cb 	bl	5c20 <__aeabi_dmul>
    3cf0:	e88d0003 	stm	sp, {r0, r1}
    3cf4:	e1a00004 	mov	r0, r4
    3cf8:	e1a01005 	mov	r1, r5
    3cfc:	e3a02000 	mov	r2, #0
    3d00:	e59f3240 	ldr	r3, [pc, #576]	; 3f48 <__kernel_cos+0x330>
    3d04:	eb0007c5 	bl	5c20 <__aeabi_dmul>
    3d08:	e89d000c 	ldm	sp, {r2, r3}
    3d0c:	e1a08000 	mov	r8, r0
    3d10:	e1a09001 	mov	r9, r1
    3d14:	e1a00004 	mov	r0, r4
    3d18:	e1a01005 	mov	r1, r5
    3d1c:	eb0007bf 	bl	5c20 <__aeabi_dmul>
    3d20:	e1a0200a 	mov	r2, r10
    3d24:	e1a04000 	mov	r4, r0
    3d28:	e1a05001 	mov	r5, r1
    3d2c:	e1a0300b 	mov	r3, r11
    3d30:	e1a00006 	mov	r0, r6
    3d34:	e1a01007 	mov	r1, r7
    3d38:	eb0007b8 	bl	5c20 <__aeabi_dmul>
    3d3c:	e1a02000 	mov	r2, r0
    3d40:	e1a03001 	mov	r3, r1
    3d44:	e1a00004 	mov	r0, r4
    3d48:	e1a01005 	mov	r1, r5
    3d4c:	eb0006ae 	bl	580c <__aeabi_dsub>
    3d50:	e1a02000 	mov	r2, r0
    3d54:	e1a03001 	mov	r3, r1
    3d58:	e1a00008 	mov	r0, r8
    3d5c:	e1a01009 	mov	r1, r9
    3d60:	eb0006a9 	bl	580c <__aeabi_dsub>
    3d64:	e1a02000 	mov	r2, r0
    3d68:	e1a03001 	mov	r3, r1
    3d6c:	e3a00000 	mov	r0, #0
    3d70:	e59f11d4 	ldr	r1, [pc, #468]	; 3f4c <__kernel_cos+0x334>
    3d74:	eb0006a4 	bl	580c <__aeabi_dsub>
    3d78:	ea00005a 	b	3ee8 <__kernel_cos+0x2d0>
    3d7c:	e1a02000 	mov	r2, r0
    3d80:	e1a03001 	mov	r3, r1
    3d84:	eb0007a5 	bl	5c20 <__aeabi_dmul>
    3d88:	e28f3f62 	add	r3, pc, #392	; 0x188
    3d8c:	e893000c 	ldm	r3, {r2, r3}
    3d90:	e1a04000 	mov	r4, r0
    3d94:	e1a05001 	mov	r5, r1
    3d98:	eb0007a0 	bl	5c20 <__aeabi_dmul>
    3d9c:	e28f3f5f 	add	r3, pc, #380	; 0x17c
    3da0:	e893000c 	ldm	r3, {r2, r3}
    3da4:	eb000699 	bl	5810 <__adddf3>
    3da8:	e1a02004 	mov	r2, r4
    3dac:	e1a03005 	mov	r3, r5
    3db0:	eb00079a 	bl	5c20 <__aeabi_dmul>
    3db4:	e28f3f5b 	add	r3, pc, #364	; 0x16c
    3db8:	e893000c 	ldm	r3, {r2, r3}
    3dbc:	eb000692 	bl	580c <__aeabi_dsub>
    3dc0:	e1a02004 	mov	r2, r4
    3dc4:	e1a03005 	mov	r3, r5
    3dc8:	eb000794 	bl	5c20 <__aeabi_dmul>
    3dcc:	e28f3f57 	add	r3, pc, #348	; 0x15c
    3dd0:	e893000c 	ldm	r3, {r2, r3}
    3dd4:	eb00068d 	bl	5810 <__adddf3>
    3dd8:	e1a02004 	mov	r2, r4
    3ddc:	e1a03005 	mov	r3, r5
    3de0:	eb00078e 	bl	5c20 <__aeabi_dmul>
    3de4:	e28f3f53 	add	r3, pc, #332	; 0x14c
    3de8:	e893000c 	ldm	r3, {r2, r3}
    3dec:	eb000686 	bl	580c <__aeabi_dsub>
    3df0:	e1a02004 	mov	r2, r4
    3df4:	e1a03005 	mov	r3, r5
    3df8:	eb000788 	bl	5c20 <__aeabi_dmul>
    3dfc:	e28f3f4f 	add	r3, pc, #316	; 0x13c
    3e00:	e893000c 	ldm	r3, {r2, r3}
    3e04:	eb000681 	bl	5810 <__adddf3>
    3e08:	e1a03005 	mov	r3, r5
    3e0c:	e1a02004 	mov	r2, r4
    3e10:	eb000782 	bl	5c20 <__aeabi_dmul>
    3e14:	e59f3134 	ldr	r3, [pc, #308]	; 3f50 <__kernel_cos+0x338>
    3e18:	e1590003 	cmp	r9, r3
    3e1c:	e88d0003 	stm	sp, {r0, r1}
    3e20:	daffffb3 	ble	3cf4 <__kernel_cos+0xdc>
    3e24:	e59f3128 	ldr	r3, [pc, #296]	; 3f54 <__kernel_cos+0x33c>
    3e28:	e1590003 	cmp	r9, r3
    3e2c:	e3a02000 	mov	r2, #0
    3e30:	ca00002f 	bgt	3ef4 <__kernel_cos+0x2dc>
    3e34:	e2493602 	sub	r3, r9, #2097152	; 0x200000
    3e38:	e3a02000 	mov	r2, #0
    3e3c:	e3a00000 	mov	r0, #0
    3e40:	e59f1104 	ldr	r1, [pc, #260]	; 3f4c <__kernel_cos+0x334>
    3e44:	e1a08002 	mov	r8, r2
    3e48:	e1a09003 	mov	r9, r3
    3e4c:	eb00066e 	bl	580c <__aeabi_dsub>
    3e50:	e58d0008 	str	r0, [sp, #8]
    3e54:	e58d100c 	str	r1, [sp, #12]
    3e58:	e1a00004 	mov	r0, r4
    3e5c:	e1a01005 	mov	r1, r5
    3e60:	e3a02000 	mov	r2, #0
    3e64:	e59f30dc 	ldr	r3, [pc, #220]	; 3f48 <__kernel_cos+0x330>
    3e68:	eb00076c 	bl	5c20 <__aeabi_dmul>
    3e6c:	e1a02008 	mov	r2, r8
    3e70:	e1a03009 	mov	r3, r9
    3e74:	eb000664 	bl	580c <__aeabi_dsub>
    3e78:	e89d000c 	ldm	sp, {r2, r3}
    3e7c:	e1a08000 	mov	r8, r0
    3e80:	e1a09001 	mov	r9, r1
    3e84:	e1a00004 	mov	r0, r4
    3e88:	e1a01005 	mov	r1, r5
    3e8c:	eb000763 	bl	5c20 <__aeabi_dmul>
    3e90:	e1a0200a 	mov	r2, r10
    3e94:	e1a04000 	mov	r4, r0
    3e98:	e1a05001 	mov	r5, r1
    3e9c:	e1a0300b 	mov	r3, r11
    3ea0:	e1a00006 	mov	r0, r6
    3ea4:	e1a01007 	mov	r1, r7
    3ea8:	eb00075c 	bl	5c20 <__aeabi_dmul>
    3eac:	e1a02000 	mov	r2, r0
    3eb0:	e1a03001 	mov	r3, r1
    3eb4:	e1a00004 	mov	r0, r4
    3eb8:	e1a01005 	mov	r1, r5
    3ebc:	eb000652 	bl	580c <__aeabi_dsub>
    3ec0:	e1a02000 	mov	r2, r0
    3ec4:	e1a03001 	mov	r3, r1
    3ec8:	e1a00008 	mov	r0, r8
    3ecc:	e1a01009 	mov	r1, r9
    3ed0:	eb00064d 	bl	580c <__aeabi_dsub>
    3ed4:	e1a02000 	mov	r2, r0
    3ed8:	e1a03001 	mov	r3, r1
    3edc:	e28d1008 	add	r1, sp, #8
    3ee0:	e8910003 	ldm	r1, {r0, r1}
    3ee4:	eb000648 	bl	580c <__aeabi_dsub>
    3ee8:	e28dd014 	add	sp, sp, #20
    3eec:	e8bd4ff0 	pop	{r4, r5, r6, r7, r8, r9, r10, r11, lr}
    3ef0:	e12fff1e 	bx	lr
    3ef4:	e59f305c 	ldr	r3, [pc, #92]	; 3f58 <__kernel_cos+0x340>
    3ef8:	e3a08000 	mov	r8, #0
    3efc:	e58d2008 	str	r2, [sp, #8]
    3f00:	e58d300c 	str	r3, [sp, #12]
    3f04:	e59f9050 	ldr	r9, [pc, #80]	; 3f5c <__kernel_cos+0x344>
    3f08:	eaffffd2 	b	3e58 <__kernel_cos+0x240>
    3f0c:	e3a00000 	mov	r0, #0
    3f10:	e59f1034 	ldr	r1, [pc, #52]	; 3f4c <__kernel_cos+0x334>
    3f14:	eafffff3 	b	3ee8 <__kernel_cos+0x2d0>
    3f18:	be8838d4 	.word	0xbe8838d4
    3f1c:	bda8fae9 	.word	0xbda8fae9
    3f20:	bdb4b1c4 	.word	0xbdb4b1c4
    3f24:	3e21ee9e 	.word	0x3e21ee9e
    3f28:	809c52ad 	.word	0x809c52ad
    3f2c:	3e927e4f 	.word	0x3e927e4f
    3f30:	19cb1590 	.word	0x19cb1590
    3f34:	3efa01a0 	.word	0x3efa01a0
    3f38:	16c15177 	.word	0x16c15177
    3f3c:	3f56c16c 	.word	0x3f56c16c
    3f40:	5555554c 	.word	0x5555554c
    3f44:	3fa55555 	.word	0x3fa55555
    3f48:	3fe00000 	.word	0x3fe00000
    3f4c:	3ff00000 	.word	0x3ff00000
    3f50:	3fd33332 	.word	0x3fd33332
    3f54:	3fe90000 	.word	0x3fe90000
    3f58:	3fe70000 	.word	0x3fe70000
    3f5c:	3fd20000 	.word	0x3fd20000

00003f60 <__kernel_rem_pio2>:
    3f60:	e92d4ff0 	push	{r4, r5, r6, r7, r8, r9, r10, r11, lr}
    3f64:	e59feb6c 	ldr	lr, [pc, #2924]	; 4ad8 <__kernel_rem_pio2+0xb78>
    3f68:	e242c003 	sub	r12, r2, #3
    3f6c:	e0ce4e9c 	smull	r4, lr, r12, lr
    3f70:	e1a0cfcc 	asr	r12, r12, #31
    3f74:	e06cc14e 	rsb	r12, r12, lr, asr #2
    3f78:	e24ddf99 	sub	sp, sp, #612	; 0x264
    3f7c:	e1cccfcc 	bic	r12, r12, r12, asr #31
    3f80:	e58dc028 	str	r12, [sp, #40]	; 0x28
    3f84:	e1a0b003 	mov	r11, r3
    3f88:	e59dc288 	ldr	r12, [sp, #648]	; 0x288
    3f8c:	e59f3b48 	ldr	r3, [pc, #2888]	; 4adc <__kernel_rem_pio2+0xb7c>
    3f90:	e793310c 	ldr	r3, [r3, r12, lsl #2]
    3f94:	e59dc028 	ldr	r12, [sp, #40]	; 0x28
    3f98:	e58d3020 	str	r3, [sp, #32]
    3f9c:	e59de020 	ldr	lr, [sp, #32]
    3fa0:	e1e0300c 	mvn	r3, r12
    3fa4:	e24b4001 	sub	r4, r11, #1
    3fa8:	e0833083 	add	r3, r3, r3, lsl #1
    3fac:	e58d0010 	str	r0, [sp, #16]
    3fb0:	e59d0028 	ldr	r0, [sp, #40]	; 0x28
    3fb4:	e0823183 	add	r3, r2, r3, lsl #3
    3fb8:	e094c00e 	adds	r12, r4, lr
    3fbc:	e58d400c 	str	r4, [sp, #12]
    3fc0:	e58d101c 	str	r1, [sp, #28]
    3fc4:	e58d3018 	str	r3, [sp, #24]
    3fc8:	e0646000 	rsb	r6, r4, r0
    3fcc:	4a000012 	bmi	401c <__kernel_rem_pio2+0xbc>
    3fd0:	e086c00c 	add	r12, r6, r12
    3fd4:	e28c4001 	add	r4, r12, #1
    3fd8:	e59dc28c 	ldr	r12, [sp, #652]	; 0x28c
    3fdc:	e28d8080 	add	r8, sp, #128	; 0x80
    3fe0:	e08c5106 	add	r5, r12, r6, lsl #2
    3fe4:	e3a07000 	mov	r7, #0
    3fe8:	ea000006 	b	4008 <__kernel_rem_pio2+0xa8>
    3fec:	e7950007 	ldr	r0, [r5, r7]
    3ff0:	eb0006d3 	bl	5b44 <__aeabi_i2d>
    3ff4:	e2866001 	add	r6, r6, #1
    3ff8:	e1560004 	cmp	r6, r4
    3ffc:	e8a80003 	stmia	r8!, {r0, r1}
    4000:	e2877004 	add	r7, r7, #4
    4004:	0a000004 	beq	401c <__kernel_rem_pio2+0xbc>
    4008:	e3560000 	cmp	r6, #0
    400c:	aafffff6 	bge	3fec <__kernel_rem_pio2+0x8c>
    4010:	e3a00000 	mov	r0, #0
    4014:	e3a01000 	mov	r1, #0
    4018:	eafffff5 	b	3ff4 <__kernel_rem_pio2+0x94>
    401c:	e59d4020 	ldr	r4, [sp, #32]
    4020:	e3540000 	cmp	r4, #0
    4024:	ba000020 	blt	40ac <__kernel_rem_pio2+0x14c>
    4028:	e59d4020 	ldr	r4, [sp, #32]
    402c:	e28dcf72 	add	r12, sp, #456	; 0x1c8
    4030:	e08cc184 	add	r12, r12, r4, lsl #3
    4034:	e58dc004 	str	r12, [sp, #4]
    4038:	e28dad07 	add	r10, sp, #448	; 0x1c0
    403c:	e1a0800b 	mov	r8, r11
    4040:	e59dc00c 	ldr	r12, [sp, #12]
    4044:	e35c0000 	cmp	r12, #0
    4048:	ba000130 	blt	4510 <__kernel_rem_pio2+0x5b0>
    404c:	e28de080 	add	lr, sp, #128	; 0x80
    4050:	e59d9010 	ldr	r9, [sp, #16]
    4054:	e08e7188 	add	r7, lr, r8, lsl #3
    4058:	e3a04000 	mov	r4, #0
    405c:	e3a05000 	mov	r5, #0
    4060:	e3a06000 	mov	r6, #0
    4064:	e937000c 	ldmdb	r7!, {r2, r3}
    4068:	e8b90003 	ldm	r9!, {r0, r1}
    406c:	eb0006eb 	bl	5c20 <__aeabi_dmul>
    4070:	e1a02000 	mov	r2, r0
    4074:	e1a03001 	mov	r3, r1
    4078:	e1a00004 	mov	r0, r4
    407c:	e1a01005 	mov	r1, r5
    4080:	eb0005e2 	bl	5810 <__adddf3>
    4084:	e2866001 	add	r6, r6, #1
    4088:	e156000b 	cmp	r6, r11
    408c:	e1a04000 	mov	r4, r0
    4090:	e1a05001 	mov	r5, r1
    4094:	1afffff2 	bne	4064 <__kernel_rem_pio2+0x104>
    4098:	e8aa0030 	stmia	r10!, {r4, r5}
    409c:	e59d4004 	ldr	r4, [sp, #4]
    40a0:	e15a0004 	cmp	r10, r4
    40a4:	e2888001 	add	r8, r8, #1
    40a8:	1affffe4 	bne	4040 <__kernel_rem_pio2+0xe0>
    40ac:	e59dc020 	ldr	r12, [sp, #32]
    40b0:	e28d4030 	add	r4, sp, #48	; 0x30
    40b4:	e084410c 	add	r4, r4, r12, lsl #2
    40b8:	e58d402c 	str	r4, [sp, #44]	; 0x2c
    40bc:	e58dc004 	str	r12, [sp, #4]
    40c0:	e59d4004 	ldr	r4, [sp, #4]
    40c4:	e28dce26 	add	r12, sp, #608	; 0x260
    40c8:	e1a0a184 	lsl	r10, r4, #3
    40cc:	e08c300a 	add	r3, r12, r10
    40d0:	e3540000 	cmp	r4, #0
    40d4:	e24350a0 	sub	r5, r3, #160	; 0xa0
    40d8:	e8950030 	ldm	r5, {r4, r5}
    40dc:	da00001f 	ble	4160 <__kernel_rem_pio2+0x200>
    40e0:	e59dc004 	ldr	r12, [sp, #4]
    40e4:	e28d802c 	add	r8, sp, #44	; 0x2c
    40e8:	e28ded07 	add	lr, sp, #448	; 0x1c0
    40ec:	e08ea00a 	add	r10, lr, r10
    40f0:	e088910c 	add	r9, r8, r12, lsl #2
    40f4:	e3a02000 	mov	r2, #0
    40f8:	e59f39e0 	ldr	r3, [pc, #2528]	; 4ae0 <__kernel_rem_pio2+0xb80>
    40fc:	e1a00004 	mov	r0, r4
    4100:	e1a01005 	mov	r1, r5
    4104:	eb0006c5 	bl	5c20 <__aeabi_dmul>
    4108:	eb00083c 	bl	6200 <__aeabi_d2iz>
    410c:	eb00068c 	bl	5b44 <__aeabi_i2d>
    4110:	e3a02000 	mov	r2, #0
    4114:	e59f39c8 	ldr	r3, [pc, #2504]	; 4ae4 <__kernel_rem_pio2+0xb84>
    4118:	e1a06000 	mov	r6, r0
    411c:	e1a07001 	mov	r7, r1
    4120:	eb0006be 	bl	5c20 <__aeabi_dmul>
    4124:	e1a02000 	mov	r2, r0
    4128:	e1a03001 	mov	r3, r1
    412c:	e1a00004 	mov	r0, r4
    4130:	e1a01005 	mov	r1, r5
    4134:	eb0005b4 	bl	580c <__aeabi_dsub>
    4138:	eb000830 	bl	6200 <__aeabi_d2iz>
    413c:	e1a02006 	mov	r2, r6
    4140:	e5a80004 	str	r0, [r8, #4]!
    4144:	e1a03007 	mov	r3, r7
    4148:	e93a0003 	ldmdb	r10!, {r0, r1}
    414c:	eb0005af 	bl	5810 <__adddf3>
    4150:	e1580009 	cmp	r8, r9
    4154:	e1a04000 	mov	r4, r0
    4158:	e1a05001 	mov	r5, r1
    415c:	1affffe4 	bne	40f4 <__kernel_rem_pio2+0x194>
    4160:	e59d2018 	ldr	r2, [sp, #24]
    4164:	e1a00004 	mov	r0, r4
    4168:	e1a01005 	mov	r1, r5
    416c:	eb000373 	bl	4f40 <scalbn>
    4170:	e3a02000 	mov	r2, #0
    4174:	e3a035ff 	mov	r3, #1069547520	; 0x3fc00000
    4178:	e1a04000 	mov	r4, r0
    417c:	e1a05001 	mov	r5, r1
    4180:	eb0006a6 	bl	5c20 <__aeabi_dmul>
    4184:	eb0002e5 	bl	4d20 <floor>
    4188:	e3a02000 	mov	r2, #0
    418c:	e59f3954 	ldr	r3, [pc, #2388]	; 4ae8 <__kernel_rem_pio2+0xb88>
    4190:	eb0006a2 	bl	5c20 <__aeabi_dmul>
    4194:	e1a02000 	mov	r2, r0
    4198:	e1a03001 	mov	r3, r1
    419c:	e1a00004 	mov	r0, r4
    41a0:	e1a01005 	mov	r1, r5
    41a4:	eb000598 	bl	580c <__aeabi_dsub>
    41a8:	e1a04000 	mov	r4, r0
    41ac:	e1a05001 	mov	r5, r1
    41b0:	eb000812 	bl	6200 <__aeabi_d2iz>
    41b4:	e1a08000 	mov	r8, r0
    41b8:	eb000661 	bl	5b44 <__aeabi_i2d>
    41bc:	e1a02000 	mov	r2, r0
    41c0:	e1a03001 	mov	r3, r1
    41c4:	e1a00004 	mov	r0, r4
    41c8:	e1a01005 	mov	r1, r5
    41cc:	eb00058e 	bl	580c <__aeabi_dsub>
    41d0:	e59d4018 	ldr	r4, [sp, #24]
    41d4:	e3540000 	cmp	r4, #0
    41d8:	e1a06000 	mov	r6, r0
    41dc:	e1a07001 	mov	r7, r1
    41e0:	da0000ad 	ble	449c <__kernel_rem_pio2+0x53c>
    41e4:	e59dc004 	ldr	r12, [sp, #4]
    41e8:	e28dee26 	add	lr, sp, #608	; 0x260
    41ec:	e24c2001 	sub	r2, r12, #1
    41f0:	e08e2102 	add	r2, lr, r2, lsl #2
    41f4:	e5120230 	ldr	r0, [r2, #-560]	; 0xfffffdd0
    41f8:	e2643018 	rsb	r3, r4, #24
    41fc:	e1a01350 	asr	r1, r0, r3
    4200:	e0403311 	sub	r3, r0, r1, lsl r3
    4204:	e2645017 	rsb	r5, r4, #23
    4208:	e1a05553 	asr	r5, r3, r5
    420c:	e5023230 	str	r3, [r2, #-560]	; 0xfffffdd0
    4210:	e0888001 	add	r8, r8, r1
    4214:	e3550000 	cmp	r5, #0
    4218:	da000027 	ble	42bc <__kernel_rem_pio2+0x35c>
    421c:	e59d4004 	ldr	r4, [sp, #4]
    4220:	e3540000 	cmp	r4, #0
    4224:	e2888001 	add	r8, r8, #1
    4228:	da0000b6 	ble	4508 <__kernel_rem_pio2+0x5a8>
    422c:	e28d3030 	add	r3, sp, #48	; 0x30
    4230:	e0830104 	add	r0, r3, r4, lsl #2
    4234:	e3a04000 	mov	r4, #0
    4238:	ea000005 	b	4254 <__kernel_rem_pio2+0x2f4>
    423c:	e3520000 	cmp	r2, #0
    4240:	12622401 	rsbne	r2, r2, #16777216	; 0x1000000
    4244:	15032004 	strne	r2, [r3, #-4]
    4248:	13a04001 	movne	r4, #1
    424c:	e1530000 	cmp	r3, r0
    4250:	0a000008 	beq	4278 <__kernel_rem_pio2+0x318>
    4254:	e3540000 	cmp	r4, #0
    4258:	e4932004 	ldr	r2, [r3], #4
    425c:	0afffff6 	beq	423c <__kernel_rem_pio2+0x2dc>
    4260:	e3e014ff 	mvn	r1, #-16777216	; 0xff000000
    4264:	e0621001 	rsb	r1, r2, r1
    4268:	e1530000 	cmp	r3, r0
    426c:	e5031004 	str	r1, [r3, #-4]
    4270:	e3a04001 	mov	r4, #1
    4274:	1afffff6 	bne	4254 <__kernel_rem_pio2+0x2f4>
    4278:	e59dc018 	ldr	r12, [sp, #24]
    427c:	e35c0000 	cmp	r12, #0
    4280:	da00000b 	ble	42b4 <__kernel_rem_pio2+0x354>
    4284:	e35c0001 	cmp	r12, #1
    4288:	0a00008a 	beq	44b8 <__kernel_rem_pio2+0x558>
    428c:	e35c0002 	cmp	r12, #2
    4290:	1a000007 	bne	42b4 <__kernel_rem_pio2+0x354>
    4294:	e59dc004 	ldr	r12, [sp, #4]
    4298:	e28dee26 	add	lr, sp, #608	; 0x260
    429c:	e24c3001 	sub	r3, r12, #1
    42a0:	e08e3103 	add	r3, lr, r3, lsl #2
    42a4:	e5132230 	ldr	r2, [r3, #-560]	; 0xfffffdd0
    42a8:	e3c224ff 	bic	r2, r2, #-16777216	; 0xff000000
    42ac:	e3c22503 	bic	r2, r2, #12582912	; 0xc00000
    42b0:	e5032230 	str	r2, [r3, #-560]	; 0xfffffdd0
    42b4:	e3550002 	cmp	r5, #2
    42b8:	0a000062 	beq	4448 <__kernel_rem_pio2+0x4e8>
    42bc:	e1a00006 	mov	r0, r6
    42c0:	e1a01007 	mov	r1, r7
    42c4:	e3a02000 	mov	r2, #0
    42c8:	e3a03000 	mov	r3, #0
    42cc:	eb0007ad 	bl	6188 <__aeabi_dcmpeq>
    42d0:	e3500000 	cmp	r0, #0
    42d4:	0a000090 	beq	451c <__kernel_rem_pio2+0x5bc>
    42d8:	e59d4004 	ldr	r4, [sp, #4]
    42dc:	e59dc020 	ldr	r12, [sp, #32]
    42e0:	e2440001 	sub	r0, r4, #1
    42e4:	e15c0000 	cmp	r12, r0
    42e8:	ca000009 	bgt	4314 <__kernel_rem_pio2+0x3b4>
    42ec:	e28de030 	add	lr, sp, #48	; 0x30
    42f0:	e59dc02c 	ldr	r12, [sp, #44]	; 0x2c
    42f4:	e08e3104 	add	r3, lr, r4, lsl #2
    42f8:	e3a02000 	mov	r2, #0
    42fc:	e5331004 	ldr	r1, [r3, #-4]!
    4300:	e153000c 	cmp	r3, r12
    4304:	e1822001 	orr	r2, r2, r1
    4308:	1afffffb 	bne	42fc <__kernel_rem_pio2+0x39c>
    430c:	e3520000 	cmp	r2, #0
    4310:	1a0001c9 	bne	4a3c <__kernel_rem_pio2+0xadc>
    4314:	e59d4020 	ldr	r4, [sp, #32]
    4318:	e2442001 	sub	r2, r4, #1
    431c:	e1a02102 	lsl	r2, r2, #2
    4320:	e28dce26 	add	r12, sp, #608	; 0x260
    4324:	e08c3002 	add	r3, r12, r2
    4328:	e5133230 	ldr	r3, [r3, #-560]	; 0xfffffdd0
    432c:	e3530000 	cmp	r3, #0
    4330:	1a0001d9 	bne	4a9c <__kernel_rem_pio2+0xb3c>
    4334:	e28de030 	add	lr, sp, #48	; 0x30
    4338:	e08e2002 	add	r2, lr, r2
    433c:	e3a03001 	mov	r3, #1
    4340:	e5321004 	ldr	r1, [r2, #-4]!
    4344:	e3510000 	cmp	r1, #0
    4348:	e2833001 	add	r3, r3, #1
    434c:	0afffffb 	beq	4340 <__kernel_rem_pio2+0x3e0>
    4350:	e59d4004 	ldr	r4, [sp, #4]
    4354:	e0843003 	add	r3, r4, r3
    4358:	e2848001 	add	r8, r4, #1
    435c:	e1580003 	cmp	r8, r3
    4360:	e58d3024 	str	r3, [sp, #36]	; 0x24
    4364:	ca000031 	bgt	4430 <__kernel_rem_pio2+0x4d0>
    4368:	e59d4004 	ldr	r4, [sp, #4]
    436c:	e59dc028 	ldr	r12, [sp, #40]	; 0x28
    4370:	e084300c 	add	r3, r4, r12
    4374:	e59dc28c 	ldr	r12, [sp, #652]	; 0x28c
    4378:	e59d400c 	ldr	r4, [sp, #12]
    437c:	e08c3103 	add	r3, r12, r3, lsl #2
    4380:	e59dc024 	ldr	r12, [sp, #36]	; 0x24
    4384:	e0849008 	add	r9, r4, r8
    4388:	e28d4d07 	add	r4, sp, #448	; 0x1c0
    438c:	e0844188 	add	r4, r4, r8, lsl #3
    4390:	e28cc001 	add	r12, r12, #1
    4394:	e28de080 	add	lr, sp, #128	; 0x80
    4398:	e98d0018 	stmib	sp, {r3, r4}
    439c:	e58dc014 	str	r12, [sp, #20]
    43a0:	e08e9189 	add	r9, lr, r9, lsl #3
    43a4:	e59d4004 	ldr	r4, [sp, #4]
    43a8:	e5b40004 	ldr	r0, [r4, #4]!
    43ac:	e58d4004 	str	r4, [sp, #4]
    43b0:	eb0005e3 	bl	5b44 <__aeabi_i2d>
    43b4:	e59dc00c 	ldr	r12, [sp, #12]
    43b8:	e35c0000 	cmp	r12, #0
    43bc:	e8a90003 	stmia	r9!, {r0, r1}
    43c0:	ba00001d 	blt	443c <__kernel_rem_pio2+0x4dc>
    43c4:	e088700b 	add	r7, r8, r11
    43c8:	e28de080 	add	lr, sp, #128	; 0x80
    43cc:	e59da010 	ldr	r10, [sp, #16]
    43d0:	e08e7187 	add	r7, lr, r7, lsl #3
    43d4:	e3a04000 	mov	r4, #0
    43d8:	e3a05000 	mov	r5, #0
    43dc:	e3a06000 	mov	r6, #0
    43e0:	e937000c 	ldmdb	r7!, {r2, r3}
    43e4:	e8ba0003 	ldm	r10!, {r0, r1}
    43e8:	eb00060c 	bl	5c20 <__aeabi_dmul>
    43ec:	e1a02000 	mov	r2, r0
    43f0:	e1a03001 	mov	r3, r1
    43f4:	e1a00004 	mov	r0, r4
    43f8:	e1a01005 	mov	r1, r5
    43fc:	eb000503 	bl	5810 <__adddf3>
    4400:	e2866001 	add	r6, r6, #1
    4404:	e156000b 	cmp	r6, r11
    4408:	e1a04000 	mov	r4, r0
    440c:	e1a05001 	mov	r5, r1
    4410:	1afffff2 	bne	43e0 <__kernel_rem_pio2+0x480>
    4414:	e59dc014 	ldr	r12, [sp, #20]
    4418:	e2888001 	add	r8, r8, #1
    441c:	e158000c 	cmp	r8, r12
    4420:	e59dc008 	ldr	r12, [sp, #8]
    4424:	e8ac0030 	stmia	r12!, {r4, r5}
    4428:	e58dc008 	str	r12, [sp, #8]
    442c:	1affffdc 	bne	43a4 <__kernel_rem_pio2+0x444>
    4430:	e59dc024 	ldr	r12, [sp, #36]	; 0x24
    4434:	e58dc004 	str	r12, [sp, #4]
    4438:	eaffff20 	b	40c0 <__kernel_rem_pio2+0x160>
    443c:	e3a04000 	mov	r4, #0
    4440:	e3a05000 	mov	r5, #0
